ARM GAS  /tmp/cchITXCi.s 			page 1


   1              		.cpu cortex-m4
   2              		.eabi_attribute 27, 1
   3              		.eabi_attribute 28, 1
   4              		.eabi_attribute 20, 1
   5              		.eabi_attribute 21, 1
   6              		.eabi_attribute 23, 3
   7              		.eabi_attribute 24, 1
   8              		.eabi_attribute 25, 1
   9              		.eabi_attribute 26, 1
  10              		.eabi_attribute 30, 1
  11              		.eabi_attribute 34, 1
  12              		.eabi_attribute 18, 4
  13              		.file	"stm32g4xx_hal_dac.c"
  14              		.text
  15              	.Ltext0:
  16              		.cfi_sections	.debug_frame
  17              		.section	.text.HAL_DAC_MspInit,"ax",%progbits
  18              		.align	1
  19              		.weak	HAL_DAC_MspInit
  20              		.arch armv7e-m
  21              		.syntax unified
  22              		.thumb
  23              		.thumb_func
  24              		.fpu fpv4-sp-d16
  26              	HAL_DAC_MspInit:
  27              	.LVL0:
  28              	.LFB134:
  29              		.file 1 "Drivers/STM32G4xx_HAL_Driver/Src/stm32g4xx_hal_dac.c"
   1:Drivers/STM32G4xx_HAL_Driver/Src/stm32g4xx_hal_dac.c **** /**
   2:Drivers/STM32G4xx_HAL_Driver/Src/stm32g4xx_hal_dac.c ****   ******************************************************************************
   3:Drivers/STM32G4xx_HAL_Driver/Src/stm32g4xx_hal_dac.c ****   * @file    stm32g4xx_hal_dac.c
   4:Drivers/STM32G4xx_HAL_Driver/Src/stm32g4xx_hal_dac.c ****   * @author  MCD Application Team
   5:Drivers/STM32G4xx_HAL_Driver/Src/stm32g4xx_hal_dac.c ****   * @brief   DAC HAL module driver.
   6:Drivers/STM32G4xx_HAL_Driver/Src/stm32g4xx_hal_dac.c ****   *         This file provides firmware functions to manage the following
   7:Drivers/STM32G4xx_HAL_Driver/Src/stm32g4xx_hal_dac.c ****   *         functionalities of the Digital to Analog Converter (DAC) peripheral:
   8:Drivers/STM32G4xx_HAL_Driver/Src/stm32g4xx_hal_dac.c ****   *           + Initialization and de-initialization functions
   9:Drivers/STM32G4xx_HAL_Driver/Src/stm32g4xx_hal_dac.c ****   *           + IO operation functions
  10:Drivers/STM32G4xx_HAL_Driver/Src/stm32g4xx_hal_dac.c ****   *           + Peripheral Control functions
  11:Drivers/STM32G4xx_HAL_Driver/Src/stm32g4xx_hal_dac.c ****   *           + Peripheral State and Errors functions
  12:Drivers/STM32G4xx_HAL_Driver/Src/stm32g4xx_hal_dac.c ****   *
  13:Drivers/STM32G4xx_HAL_Driver/Src/stm32g4xx_hal_dac.c ****   *
  14:Drivers/STM32G4xx_HAL_Driver/Src/stm32g4xx_hal_dac.c ****   ******************************************************************************
  15:Drivers/STM32G4xx_HAL_Driver/Src/stm32g4xx_hal_dac.c ****   * @attention
  16:Drivers/STM32G4xx_HAL_Driver/Src/stm32g4xx_hal_dac.c ****   *
  17:Drivers/STM32G4xx_HAL_Driver/Src/stm32g4xx_hal_dac.c ****   * Copyright (c) 2019 STMicroelectronics.
  18:Drivers/STM32G4xx_HAL_Driver/Src/stm32g4xx_hal_dac.c ****   * All rights reserved.
  19:Drivers/STM32G4xx_HAL_Driver/Src/stm32g4xx_hal_dac.c ****   *
  20:Drivers/STM32G4xx_HAL_Driver/Src/stm32g4xx_hal_dac.c ****   * This software is licensed under terms that can be found in the LICENSE file
  21:Drivers/STM32G4xx_HAL_Driver/Src/stm32g4xx_hal_dac.c ****   * in the root directory of this software component.
  22:Drivers/STM32G4xx_HAL_Driver/Src/stm32g4xx_hal_dac.c ****   * If no LICENSE file comes with this software, it is provided AS-IS.
  23:Drivers/STM32G4xx_HAL_Driver/Src/stm32g4xx_hal_dac.c ****   *
  24:Drivers/STM32G4xx_HAL_Driver/Src/stm32g4xx_hal_dac.c ****   ******************************************************************************
  25:Drivers/STM32G4xx_HAL_Driver/Src/stm32g4xx_hal_dac.c ****   @verbatim
  26:Drivers/STM32G4xx_HAL_Driver/Src/stm32g4xx_hal_dac.c ****   ==============================================================================
  27:Drivers/STM32G4xx_HAL_Driver/Src/stm32g4xx_hal_dac.c ****                       ##### DAC Peripheral features #####
  28:Drivers/STM32G4xx_HAL_Driver/Src/stm32g4xx_hal_dac.c ****   ==============================================================================
  29:Drivers/STM32G4xx_HAL_Driver/Src/stm32g4xx_hal_dac.c ****     [..]
ARM GAS  /tmp/cchITXCi.s 			page 2


  30:Drivers/STM32G4xx_HAL_Driver/Src/stm32g4xx_hal_dac.c ****       *** DAC Channels ***
  31:Drivers/STM32G4xx_HAL_Driver/Src/stm32g4xx_hal_dac.c ****       ====================
  32:Drivers/STM32G4xx_HAL_Driver/Src/stm32g4xx_hal_dac.c ****     [..]
  33:Drivers/STM32G4xx_HAL_Driver/Src/stm32g4xx_hal_dac.c ****     STM32G4 devices integrate up to seven 12-bit Digital Analog Converters,
  34:Drivers/STM32G4xx_HAL_Driver/Src/stm32g4xx_hal_dac.c ****     up to six of them grouped by pair forming a DAC instance.
  35:Drivers/STM32G4xx_HAL_Driver/Src/stm32g4xx_hal_dac.c **** 
  36:Drivers/STM32G4xx_HAL_Driver/Src/stm32g4xx_hal_dac.c ****     The 2 converters of an single instance (i.e. channel1 & channel2)
  37:Drivers/STM32G4xx_HAL_Driver/Src/stm32g4xx_hal_dac.c ****     can be used independently or simultaneously (dual mode):
  38:Drivers/STM32G4xx_HAL_Driver/Src/stm32g4xx_hal_dac.c ****       (#) DAC channel1 with DAC_OUT1 as output (not for all) or connected to on-chip
  39:Drivers/STM32G4xx_HAL_Driver/Src/stm32g4xx_hal_dac.c ****           peripherals (ex. comparators, operational amplifier).
  40:Drivers/STM32G4xx_HAL_Driver/Src/stm32g4xx_hal_dac.c ****       (#) DAC channel2 with DAC_OUT2 as output (not for all) or connected to on-chip
  41:Drivers/STM32G4xx_HAL_Driver/Src/stm32g4xx_hal_dac.c ****           peripherals (ex. comparators, operational amplifier).
  42:Drivers/STM32G4xx_HAL_Driver/Src/stm32g4xx_hal_dac.c ****     Note: when an instance only includes one converter, only independent mode is
  43:Drivers/STM32G4xx_HAL_Driver/Src/stm32g4xx_hal_dac.c ****         supported by this converter.
  44:Drivers/STM32G4xx_HAL_Driver/Src/stm32g4xx_hal_dac.c **** 
  45:Drivers/STM32G4xx_HAL_Driver/Src/stm32g4xx_hal_dac.c ****     STM32G4 instances & converters availability and output PIO mapping (DAC_OUTx):
  46:Drivers/STM32G4xx_HAL_Driver/Src/stm32g4xx_hal_dac.c ****     ----------------------------------------------------------------------------
  47:Drivers/STM32G4xx_HAL_Driver/Src/stm32g4xx_hal_dac.c ****                            |    DAC1    |    DAC2    |    DAC3    |    DAC4    |
  48:Drivers/STM32G4xx_HAL_Driver/Src/stm32g4xx_hal_dac.c ****     ----------------------------------------------------------------------------
  49:Drivers/STM32G4xx_HAL_Driver/Src/stm32g4xx_hal_dac.c ****     Channel 1  |           |    YES     |    YES     |    YES     |    YES
  50:Drivers/STM32G4xx_HAL_Driver/Src/stm32g4xx_hal_dac.c ****                | DAC_OUT1  |    PA4     |    PA6     |     -      |     -
  51:Drivers/STM32G4xx_HAL_Driver/Src/stm32g4xx_hal_dac.c ****     ----------------------------------------------------------------------------
  52:Drivers/STM32G4xx_HAL_Driver/Src/stm32g4xx_hal_dac.c ****     Channel 2  |           |    YES     |    NO      |    YES     |    YES
  53:Drivers/STM32G4xx_HAL_Driver/Src/stm32g4xx_hal_dac.c ****                | DAC_OUT2  |    PA5     |     -      |     -      |     -
  54:Drivers/STM32G4xx_HAL_Driver/Src/stm32g4xx_hal_dac.c ****     ----------------------------------------------------------------------------
  55:Drivers/STM32G4xx_HAL_Driver/Src/stm32g4xx_hal_dac.c ****     Note: On this STM32 series, all devices do not include each DAC instances listed
  56:Drivers/STM32G4xx_HAL_Driver/Src/stm32g4xx_hal_dac.c ****           above. Refer to device datasheet for DACx instance availability.
  57:Drivers/STM32G4xx_HAL_Driver/Src/stm32g4xx_hal_dac.c **** 
  58:Drivers/STM32G4xx_HAL_Driver/Src/stm32g4xx_hal_dac.c ****       *** DAC Triggers ***
  59:Drivers/STM32G4xx_HAL_Driver/Src/stm32g4xx_hal_dac.c ****       ====================
  60:Drivers/STM32G4xx_HAL_Driver/Src/stm32g4xx_hal_dac.c ****     [..]
  61:Drivers/STM32G4xx_HAL_Driver/Src/stm32g4xx_hal_dac.c ****     Digital to Analog conversion can be non-triggered using DAC_TRIGGER_NONE
  62:Drivers/STM32G4xx_HAL_Driver/Src/stm32g4xx_hal_dac.c ****     and DAC_OUT1/DAC_OUT2 is available once writing to DHRx register.
  63:Drivers/STM32G4xx_HAL_Driver/Src/stm32g4xx_hal_dac.c ****     [..]
  64:Drivers/STM32G4xx_HAL_Driver/Src/stm32g4xx_hal_dac.c ****     Digital to Analog conversion can be triggered by:
  65:Drivers/STM32G4xx_HAL_Driver/Src/stm32g4xx_hal_dac.c ****       (#) External event: EXTI Line 9 (any GPIOx_PIN_9) using DAC_TRIGGER_EXT_IT9.
  66:Drivers/STM32G4xx_HAL_Driver/Src/stm32g4xx_hal_dac.c ****           The used pin (GPIOx_PIN_9) must be configured in input mode.
  67:Drivers/STM32G4xx_HAL_Driver/Src/stm32g4xx_hal_dac.c **** 
  68:Drivers/STM32G4xx_HAL_Driver/Src/stm32g4xx_hal_dac.c ****       (#) Timers TRGO: TIM1, TIM2, TIM3, TIM4, TIM6, TIM7, TIM8 and TIM15
  69:Drivers/STM32G4xx_HAL_Driver/Src/stm32g4xx_hal_dac.c ****           (DAC_TRIGGER_T2_TRGO, DAC_TRIGGER_T3_TRGO...)
  70:Drivers/STM32G4xx_HAL_Driver/Src/stm32g4xx_hal_dac.c **** 
  71:Drivers/STM32G4xx_HAL_Driver/Src/stm32g4xx_hal_dac.c ****       (#) Software using DAC_TRIGGER_SOFTWARE
  72:Drivers/STM32G4xx_HAL_Driver/Src/stm32g4xx_hal_dac.c **** 
  73:Drivers/STM32G4xx_HAL_Driver/Src/stm32g4xx_hal_dac.c ****       (#) HRTimer TRGO: HRTIM1 (1)
  74:Drivers/STM32G4xx_HAL_Driver/Src/stm32g4xx_hal_dac.c ****           (DAC_TRIGGER_HRTIM_TRG01, DAC_TRIGGER_HRTIM_TRG02...)
  75:Drivers/STM32G4xx_HAL_Driver/Src/stm32g4xx_hal_dac.c **** 
  76:Drivers/STM32G4xx_HAL_Driver/Src/stm32g4xx_hal_dac.c ****     [..]
  77:Drivers/STM32G4xx_HAL_Driver/Src/stm32g4xx_hal_dac.c ****     Specific triggers for sawtooth generation:
  78:Drivers/STM32G4xx_HAL_Driver/Src/stm32g4xx_hal_dac.c ****       (#) External event: EXTI Line 10 (any GPIOx_PIN_10) using DAC_TRIGGER_EXT_IT10.
  79:Drivers/STM32G4xx_HAL_Driver/Src/stm32g4xx_hal_dac.c ****           The used pin (GPIOx_PIN_10) must be configured in input mode.
  80:Drivers/STM32G4xx_HAL_Driver/Src/stm32g4xx_hal_dac.c **** 
  81:Drivers/STM32G4xx_HAL_Driver/Src/stm32g4xx_hal_dac.c ****       (#) HRTimer Step & Reset: HRTIM1 (1)
  82:Drivers/STM32G4xx_HAL_Driver/Src/stm32g4xx_hal_dac.c ****           (DAC_TRIGGER_HRTIM_RST_TRG1, DAC_TRIGGER_HRTIM_STEP_TRG1...)
  83:Drivers/STM32G4xx_HAL_Driver/Src/stm32g4xx_hal_dac.c **** 
  84:Drivers/STM32G4xx_HAL_Driver/Src/stm32g4xx_hal_dac.c ****       Note: On this STM32 series, parameter only available if HRTIM feature is
  85:Drivers/STM32G4xx_HAL_Driver/Src/stm32g4xx_hal_dac.c ****             supported (refer to device datasheet for supported features list)
  86:Drivers/STM32G4xx_HAL_Driver/Src/stm32g4xx_hal_dac.c **** 
ARM GAS  /tmp/cchITXCi.s 			page 3


  87:Drivers/STM32G4xx_HAL_Driver/Src/stm32g4xx_hal_dac.c ****       *** DAC Buffer mode feature ***
  88:Drivers/STM32G4xx_HAL_Driver/Src/stm32g4xx_hal_dac.c ****       ===============================
  89:Drivers/STM32G4xx_HAL_Driver/Src/stm32g4xx_hal_dac.c ****       [..]
  90:Drivers/STM32G4xx_HAL_Driver/Src/stm32g4xx_hal_dac.c ****       Each DAC channel integrates an output buffer that can be used to
  91:Drivers/STM32G4xx_HAL_Driver/Src/stm32g4xx_hal_dac.c ****       reduce the output impedance, and to drive external loads directly
  92:Drivers/STM32G4xx_HAL_Driver/Src/stm32g4xx_hal_dac.c ****       without having to add an external operational amplifier.
  93:Drivers/STM32G4xx_HAL_Driver/Src/stm32g4xx_hal_dac.c ****       To enable, the output buffer use
  94:Drivers/STM32G4xx_HAL_Driver/Src/stm32g4xx_hal_dac.c ****       sConfig.DAC_OutputBuffer = DAC_OUTPUTBUFFER_ENABLE;
  95:Drivers/STM32G4xx_HAL_Driver/Src/stm32g4xx_hal_dac.c ****       [..]
  96:Drivers/STM32G4xx_HAL_Driver/Src/stm32g4xx_hal_dac.c ****       (@) Refer to the device datasheet for more details about output
  97:Drivers/STM32G4xx_HAL_Driver/Src/stm32g4xx_hal_dac.c ****           impedance value with and without output buffer.
  98:Drivers/STM32G4xx_HAL_Driver/Src/stm32g4xx_hal_dac.c **** 
  99:Drivers/STM32G4xx_HAL_Driver/Src/stm32g4xx_hal_dac.c ****       *** DAC connect feature ***
 100:Drivers/STM32G4xx_HAL_Driver/Src/stm32g4xx_hal_dac.c ****       ===============================
 101:Drivers/STM32G4xx_HAL_Driver/Src/stm32g4xx_hal_dac.c ****       [..]
 102:Drivers/STM32G4xx_HAL_Driver/Src/stm32g4xx_hal_dac.c ****       Each DAC channel can be connected internally.
 103:Drivers/STM32G4xx_HAL_Driver/Src/stm32g4xx_hal_dac.c ****       To connect, use
 104:Drivers/STM32G4xx_HAL_Driver/Src/stm32g4xx_hal_dac.c ****       sConfig.DAC_ConnectOnChipPeripheral = DAC_CHIPCONNECT_INTERNAL;
 105:Drivers/STM32G4xx_HAL_Driver/Src/stm32g4xx_hal_dac.c ****       or
 106:Drivers/STM32G4xx_HAL_Driver/Src/stm32g4xx_hal_dac.c ****       sConfig.DAC_ConnectOnChipPeripheral = DAC_CHIPCONNECT_BOTH;
 107:Drivers/STM32G4xx_HAL_Driver/Src/stm32g4xx_hal_dac.c **** 
 108:Drivers/STM32G4xx_HAL_Driver/Src/stm32g4xx_hal_dac.c ****       *** GPIO configurations guidelines ***
 109:Drivers/STM32G4xx_HAL_Driver/Src/stm32g4xx_hal_dac.c ****       =====================
 110:Drivers/STM32G4xx_HAL_Driver/Src/stm32g4xx_hal_dac.c ****       [..]
 111:Drivers/STM32G4xx_HAL_Driver/Src/stm32g4xx_hal_dac.c ****       When a DAC channel is used (ex channel1 on PA4) and the other is not
 112:Drivers/STM32G4xx_HAL_Driver/Src/stm32g4xx_hal_dac.c ****       (ex channel2 on PA5 is configured in Analog and disabled).
 113:Drivers/STM32G4xx_HAL_Driver/Src/stm32g4xx_hal_dac.c ****       Channel1 may disturb channel2 as coupling effect.
 114:Drivers/STM32G4xx_HAL_Driver/Src/stm32g4xx_hal_dac.c ****       Note that there is no coupling on channel2 as soon as channel2 is turned on.
 115:Drivers/STM32G4xx_HAL_Driver/Src/stm32g4xx_hal_dac.c ****       Coupling on adjacent channel could be avoided as follows:
 116:Drivers/STM32G4xx_HAL_Driver/Src/stm32g4xx_hal_dac.c ****       when unused PA5 is configured as INPUT PULL-UP or DOWN.
 117:Drivers/STM32G4xx_HAL_Driver/Src/stm32g4xx_hal_dac.c ****       PA5 is configured in ANALOG just before it is turned on.
 118:Drivers/STM32G4xx_HAL_Driver/Src/stm32g4xx_hal_dac.c **** 
 119:Drivers/STM32G4xx_HAL_Driver/Src/stm32g4xx_hal_dac.c ****       *** DAC Sample and Hold feature ***
 120:Drivers/STM32G4xx_HAL_Driver/Src/stm32g4xx_hal_dac.c ****       ========================
 121:Drivers/STM32G4xx_HAL_Driver/Src/stm32g4xx_hal_dac.c ****       [..]
 122:Drivers/STM32G4xx_HAL_Driver/Src/stm32g4xx_hal_dac.c ****       For each converter, 2 modes are supported: normal mode and
 123:Drivers/STM32G4xx_HAL_Driver/Src/stm32g4xx_hal_dac.c ****       "sample and hold" mode (i.e. low power mode).
 124:Drivers/STM32G4xx_HAL_Driver/Src/stm32g4xx_hal_dac.c ****       In the sample and hold mode, the DAC core converts data, then holds the
 125:Drivers/STM32G4xx_HAL_Driver/Src/stm32g4xx_hal_dac.c ****       converted voltage on a capacitor. When not converting, the DAC cores and
 126:Drivers/STM32G4xx_HAL_Driver/Src/stm32g4xx_hal_dac.c ****       buffer are completely turned off between samples and the DAC output is
 127:Drivers/STM32G4xx_HAL_Driver/Src/stm32g4xx_hal_dac.c ****       tri-stated, therefore  reducing the overall power consumption. A new
 128:Drivers/STM32G4xx_HAL_Driver/Src/stm32g4xx_hal_dac.c ****       stabilization period is needed before each new conversion.
 129:Drivers/STM32G4xx_HAL_Driver/Src/stm32g4xx_hal_dac.c **** 
 130:Drivers/STM32G4xx_HAL_Driver/Src/stm32g4xx_hal_dac.c ****       The sample and hold allow setting internal or external voltage @
 131:Drivers/STM32G4xx_HAL_Driver/Src/stm32g4xx_hal_dac.c ****       low power consumption cost (output value can be at any given rate either
 132:Drivers/STM32G4xx_HAL_Driver/Src/stm32g4xx_hal_dac.c ****       by CPU or DMA).
 133:Drivers/STM32G4xx_HAL_Driver/Src/stm32g4xx_hal_dac.c **** 
 134:Drivers/STM32G4xx_HAL_Driver/Src/stm32g4xx_hal_dac.c ****       The Sample and hold block and registers uses either LSI & run in
 135:Drivers/STM32G4xx_HAL_Driver/Src/stm32g4xx_hal_dac.c ****       several power modes: run mode, sleep mode, low power run, low power sleep
 136:Drivers/STM32G4xx_HAL_Driver/Src/stm32g4xx_hal_dac.c ****       mode & stop1 mode.
 137:Drivers/STM32G4xx_HAL_Driver/Src/stm32g4xx_hal_dac.c **** 
 138:Drivers/STM32G4xx_HAL_Driver/Src/stm32g4xx_hal_dac.c ****       Low power stop1 mode allows only static conversion.
 139:Drivers/STM32G4xx_HAL_Driver/Src/stm32g4xx_hal_dac.c **** 
 140:Drivers/STM32G4xx_HAL_Driver/Src/stm32g4xx_hal_dac.c ****       To enable Sample and Hold mode
 141:Drivers/STM32G4xx_HAL_Driver/Src/stm32g4xx_hal_dac.c ****       Enable LSI using HAL_RCC_OscConfig with RCC_OSCILLATORTYPE_LSI &
 142:Drivers/STM32G4xx_HAL_Driver/Src/stm32g4xx_hal_dac.c ****       RCC_LSI_ON parameters.
 143:Drivers/STM32G4xx_HAL_Driver/Src/stm32g4xx_hal_dac.c **** 
ARM GAS  /tmp/cchITXCi.s 			page 4


 144:Drivers/STM32G4xx_HAL_Driver/Src/stm32g4xx_hal_dac.c ****       Use DAC_InitStructure.DAC_SampleAndHold = DAC_SAMPLEANDHOLD_ENABLE;
 145:Drivers/STM32G4xx_HAL_Driver/Src/stm32g4xx_hal_dac.c ****          & DAC_ChannelConfTypeDef.DAC_SampleAndHoldConfig.DAC_SampleTime,
 146:Drivers/STM32G4xx_HAL_Driver/Src/stm32g4xx_hal_dac.c ****            DAC_HoldTime & DAC_RefreshTime;
 147:Drivers/STM32G4xx_HAL_Driver/Src/stm32g4xx_hal_dac.c **** 
 148:Drivers/STM32G4xx_HAL_Driver/Src/stm32g4xx_hal_dac.c ****        *** DAC calibration feature ***
 149:Drivers/STM32G4xx_HAL_Driver/Src/stm32g4xx_hal_dac.c ****        ===================================
 150:Drivers/STM32G4xx_HAL_Driver/Src/stm32g4xx_hal_dac.c ****       [..]
 151:Drivers/STM32G4xx_HAL_Driver/Src/stm32g4xx_hal_dac.c ****        (#)  The 2 converters (channel1 & channel2) provide calibration capabilities.
 152:Drivers/STM32G4xx_HAL_Driver/Src/stm32g4xx_hal_dac.c ****        (++) Calibration aims at correcting some offset of output buffer.
 153:Drivers/STM32G4xx_HAL_Driver/Src/stm32g4xx_hal_dac.c ****        (++) The DAC uses either factory calibration settings OR user defined
 154:Drivers/STM32G4xx_HAL_Driver/Src/stm32g4xx_hal_dac.c ****            calibration (trimming) settings (i.e. trimming mode).
 155:Drivers/STM32G4xx_HAL_Driver/Src/stm32g4xx_hal_dac.c ****        (++) The user defined settings can be figured out using self calibration
 156:Drivers/STM32G4xx_HAL_Driver/Src/stm32g4xx_hal_dac.c ****            handled by HAL_DACEx_SelfCalibrate.
 157:Drivers/STM32G4xx_HAL_Driver/Src/stm32g4xx_hal_dac.c ****        (++) HAL_DACEx_SelfCalibrate:
 158:Drivers/STM32G4xx_HAL_Driver/Src/stm32g4xx_hal_dac.c ****        (+++) Runs automatically the calibration.
 159:Drivers/STM32G4xx_HAL_Driver/Src/stm32g4xx_hal_dac.c ****        (+++) Enables the user trimming mode
 160:Drivers/STM32G4xx_HAL_Driver/Src/stm32g4xx_hal_dac.c ****        (+++) Updates a structure with trimming values with fresh calibration
 161:Drivers/STM32G4xx_HAL_Driver/Src/stm32g4xx_hal_dac.c ****             results.
 162:Drivers/STM32G4xx_HAL_Driver/Src/stm32g4xx_hal_dac.c ****             The user may store the calibration results for larger
 163:Drivers/STM32G4xx_HAL_Driver/Src/stm32g4xx_hal_dac.c ****             (ex monitoring the trimming as a function of temperature
 164:Drivers/STM32G4xx_HAL_Driver/Src/stm32g4xx_hal_dac.c ****             for instance)
 165:Drivers/STM32G4xx_HAL_Driver/Src/stm32g4xx_hal_dac.c **** 
 166:Drivers/STM32G4xx_HAL_Driver/Src/stm32g4xx_hal_dac.c ****        *** DAC wave generation feature ***
 167:Drivers/STM32G4xx_HAL_Driver/Src/stm32g4xx_hal_dac.c ****        ===================================
 168:Drivers/STM32G4xx_HAL_Driver/Src/stm32g4xx_hal_dac.c ****        [..]
 169:Drivers/STM32G4xx_HAL_Driver/Src/stm32g4xx_hal_dac.c ****        Both DAC channels can be used to generate
 170:Drivers/STM32G4xx_HAL_Driver/Src/stm32g4xx_hal_dac.c ****          (#) Noise wave
 171:Drivers/STM32G4xx_HAL_Driver/Src/stm32g4xx_hal_dac.c ****          (#) Triangle wave
 172:Drivers/STM32G4xx_HAL_Driver/Src/stm32g4xx_hal_dac.c ****          (#) Sawtooth wave
 173:Drivers/STM32G4xx_HAL_Driver/Src/stm32g4xx_hal_dac.c **** 
 174:Drivers/STM32G4xx_HAL_Driver/Src/stm32g4xx_hal_dac.c ****        *** DAC data format ***
 175:Drivers/STM32G4xx_HAL_Driver/Src/stm32g4xx_hal_dac.c ****        =======================
 176:Drivers/STM32G4xx_HAL_Driver/Src/stm32g4xx_hal_dac.c ****        [..]
 177:Drivers/STM32G4xx_HAL_Driver/Src/stm32g4xx_hal_dac.c ****        The DAC data format can be:
 178:Drivers/STM32G4xx_HAL_Driver/Src/stm32g4xx_hal_dac.c ****          (#) 8-bit right alignment using DAC_ALIGN_8B_R
 179:Drivers/STM32G4xx_HAL_Driver/Src/stm32g4xx_hal_dac.c ****          (#) 12-bit left alignment using DAC_ALIGN_12B_L
 180:Drivers/STM32G4xx_HAL_Driver/Src/stm32g4xx_hal_dac.c ****          (#) 12-bit right alignment using DAC_ALIGN_12B_R
 181:Drivers/STM32G4xx_HAL_Driver/Src/stm32g4xx_hal_dac.c **** 
 182:Drivers/STM32G4xx_HAL_Driver/Src/stm32g4xx_hal_dac.c ****        *** DAC data value to voltage correspondence ***
 183:Drivers/STM32G4xx_HAL_Driver/Src/stm32g4xx_hal_dac.c ****        ================================================
 184:Drivers/STM32G4xx_HAL_Driver/Src/stm32g4xx_hal_dac.c ****        [..]
 185:Drivers/STM32G4xx_HAL_Driver/Src/stm32g4xx_hal_dac.c ****        The analog output voltage on each DAC channel pin is determined
 186:Drivers/STM32G4xx_HAL_Driver/Src/stm32g4xx_hal_dac.c ****        by the following equation:
 187:Drivers/STM32G4xx_HAL_Driver/Src/stm32g4xx_hal_dac.c ****        [..]
 188:Drivers/STM32G4xx_HAL_Driver/Src/stm32g4xx_hal_dac.c ****        DAC_OUTx = VREF+ * DOR / 4095
 189:Drivers/STM32G4xx_HAL_Driver/Src/stm32g4xx_hal_dac.c ****        (+) with  DOR is the Data Output Register
 190:Drivers/STM32G4xx_HAL_Driver/Src/stm32g4xx_hal_dac.c ****        [..]
 191:Drivers/STM32G4xx_HAL_Driver/Src/stm32g4xx_hal_dac.c ****           VREF+ is the input voltage reference (refer to the device datasheet)
 192:Drivers/STM32G4xx_HAL_Driver/Src/stm32g4xx_hal_dac.c ****        [..]
 193:Drivers/STM32G4xx_HAL_Driver/Src/stm32g4xx_hal_dac.c ****         e.g. To set DAC_OUT1 to 0.7V, use
 194:Drivers/STM32G4xx_HAL_Driver/Src/stm32g4xx_hal_dac.c ****        (+) Assuming that VREF+ = 3.3V, DAC_OUT1 = (3.3 * 868) / 4095 = 0.7V
 195:Drivers/STM32G4xx_HAL_Driver/Src/stm32g4xx_hal_dac.c **** 
 196:Drivers/STM32G4xx_HAL_Driver/Src/stm32g4xx_hal_dac.c ****        *** DMA requests ***
 197:Drivers/STM32G4xx_HAL_Driver/Src/stm32g4xx_hal_dac.c ****        =====================
 198:Drivers/STM32G4xx_HAL_Driver/Src/stm32g4xx_hal_dac.c ****        [..]
 199:Drivers/STM32G4xx_HAL_Driver/Src/stm32g4xx_hal_dac.c ****        A DMAMUX request can be generated when an external trigger (but not a software trigger)
 200:Drivers/STM32G4xx_HAL_Driver/Src/stm32g4xx_hal_dac.c ****        occurs if DMAMUX requests are enabled using HAL_DAC_Start_DMA().
ARM GAS  /tmp/cchITXCi.s 			page 5


 201:Drivers/STM32G4xx_HAL_Driver/Src/stm32g4xx_hal_dac.c ****        DMAMUX requests are mapped as following:
 202:Drivers/STM32G4xx_HAL_Driver/Src/stm32g4xx_hal_dac.c ****         ----------------------------------------------------------------------------
 203:Drivers/STM32G4xx_HAL_Driver/Src/stm32g4xx_hal_dac.c ****                                |    DAC1    |    DAC2    |    DAC3    |    DAC4    |
 204:Drivers/STM32G4xx_HAL_Driver/Src/stm32g4xx_hal_dac.c ****         ----------------------------------------------------------------------------
 205:Drivers/STM32G4xx_HAL_Driver/Src/stm32g4xx_hal_dac.c ****         Channel 1  |           |     6      |     41     |    102     |    104
 206:Drivers/STM32G4xx_HAL_Driver/Src/stm32g4xx_hal_dac.c ****         ----------------------------------------------------------------------------
 207:Drivers/STM32G4xx_HAL_Driver/Src/stm32g4xx_hal_dac.c ****         Channel 2  |           |     7      |     -      |    103     |    105
 208:Drivers/STM32G4xx_HAL_Driver/Src/stm32g4xx_hal_dac.c ****         ----------------------------------------------------------------------------
 209:Drivers/STM32G4xx_HAL_Driver/Src/stm32g4xx_hal_dac.c ****         Note: On this STM32 series, all devices do not include each DAC instances listed
 210:Drivers/STM32G4xx_HAL_Driver/Src/stm32g4xx_hal_dac.c ****               above. Refer to device datasheet for DACx instance availability.
 211:Drivers/STM32G4xx_HAL_Driver/Src/stm32g4xx_hal_dac.c **** 
 212:Drivers/STM32G4xx_HAL_Driver/Src/stm32g4xx_hal_dac.c ****        *** High frequency interface mode ***
 213:Drivers/STM32G4xx_HAL_Driver/Src/stm32g4xx_hal_dac.c ****        =====================================
 214:Drivers/STM32G4xx_HAL_Driver/Src/stm32g4xx_hal_dac.c ****        [..]
 215:Drivers/STM32G4xx_HAL_Driver/Src/stm32g4xx_hal_dac.c ****        The high frequency interface informs DAC instance about the bus frequency in use.
 216:Drivers/STM32G4xx_HAL_Driver/Src/stm32g4xx_hal_dac.c ****        It is mandatory information for DAC (as internal timing of DAC is bus frequency dependent)
 217:Drivers/STM32G4xx_HAL_Driver/Src/stm32g4xx_hal_dac.c ****        provided thanks to parameter DAC_HighFrequency handled in HAL_DAC_ConfigChannel () function.
 218:Drivers/STM32G4xx_HAL_Driver/Src/stm32g4xx_hal_dac.c ****        Use of DAC_HIGH_FREQUENCY_INTERFACE_MODE_AUTOMATIC value of DAC_HighFrequency is recommended
 219:Drivers/STM32G4xx_HAL_Driver/Src/stm32g4xx_hal_dac.c ****        function figured out the correct setting.
 220:Drivers/STM32G4xx_HAL_Driver/Src/stm32g4xx_hal_dac.c ****        The high frequency mode is same for all converters of a same DAC instance. Either same
 221:Drivers/STM32G4xx_HAL_Driver/Src/stm32g4xx_hal_dac.c ****        parameter DAC_HighFrequency is used for all DAC converters or again self
 222:Drivers/STM32G4xx_HAL_Driver/Src/stm32g4xx_hal_dac.c ****        DAC_HIGH_FREQUENCY_INTERFACE_MODE_AUTOMATIC detection parameter.
 223:Drivers/STM32G4xx_HAL_Driver/Src/stm32g4xx_hal_dac.c **** 
 224:Drivers/STM32G4xx_HAL_Driver/Src/stm32g4xx_hal_dac.c ****      [..]
 225:Drivers/STM32G4xx_HAL_Driver/Src/stm32g4xx_hal_dac.c ****     (@) For Dual mode and specific signal (Sawtooth, triangle and noise) generation
 226:Drivers/STM32G4xx_HAL_Driver/Src/stm32g4xx_hal_dac.c ****         please refer to Extended Features Driver description
 227:Drivers/STM32G4xx_HAL_Driver/Src/stm32g4xx_hal_dac.c **** 
 228:Drivers/STM32G4xx_HAL_Driver/Src/stm32g4xx_hal_dac.c ****                       ##### How to use this driver #####
 229:Drivers/STM32G4xx_HAL_Driver/Src/stm32g4xx_hal_dac.c ****   ==============================================================================
 230:Drivers/STM32G4xx_HAL_Driver/Src/stm32g4xx_hal_dac.c ****     [..]
 231:Drivers/STM32G4xx_HAL_Driver/Src/stm32g4xx_hal_dac.c ****       (+) DAC APB clock must be enabled to get write access to DAC
 232:Drivers/STM32G4xx_HAL_Driver/Src/stm32g4xx_hal_dac.c ****           registers using HAL_DAC_Init()
 233:Drivers/STM32G4xx_HAL_Driver/Src/stm32g4xx_hal_dac.c ****       (+) If available & needed, configure DAC_OUTx (DAC_OUT1, DAC_OUT2) in analog mode.
 234:Drivers/STM32G4xx_HAL_Driver/Src/stm32g4xx_hal_dac.c ****       (+) Configure the DAC channel using HAL_DAC_ConfigChannel() function.
 235:Drivers/STM32G4xx_HAL_Driver/Src/stm32g4xx_hal_dac.c ****       (+) Enable the DAC channel using HAL_DAC_Start() or HAL_DAC_Start_DMA() functions.
 236:Drivers/STM32G4xx_HAL_Driver/Src/stm32g4xx_hal_dac.c **** 
 237:Drivers/STM32G4xx_HAL_Driver/Src/stm32g4xx_hal_dac.c ****      *** Calibration mode IO operation ***
 238:Drivers/STM32G4xx_HAL_Driver/Src/stm32g4xx_hal_dac.c ****      ======================================
 239:Drivers/STM32G4xx_HAL_Driver/Src/stm32g4xx_hal_dac.c ****      [..]
 240:Drivers/STM32G4xx_HAL_Driver/Src/stm32g4xx_hal_dac.c ****        (+) Retrieve the factory trimming (calibration settings) using HAL_DACEx_GetTrimOffset()
 241:Drivers/STM32G4xx_HAL_Driver/Src/stm32g4xx_hal_dac.c ****        (+) Run the calibration using HAL_DACEx_SelfCalibrate()
 242:Drivers/STM32G4xx_HAL_Driver/Src/stm32g4xx_hal_dac.c ****        (+) Update the trimming while DAC running using HAL_DACEx_SetUserTrimming()
 243:Drivers/STM32G4xx_HAL_Driver/Src/stm32g4xx_hal_dac.c **** 
 244:Drivers/STM32G4xx_HAL_Driver/Src/stm32g4xx_hal_dac.c ****      *** Polling mode IO operation ***
 245:Drivers/STM32G4xx_HAL_Driver/Src/stm32g4xx_hal_dac.c ****      =================================
 246:Drivers/STM32G4xx_HAL_Driver/Src/stm32g4xx_hal_dac.c ****      [..]
 247:Drivers/STM32G4xx_HAL_Driver/Src/stm32g4xx_hal_dac.c ****        (+) Start the DAC peripheral using HAL_DAC_Start()
 248:Drivers/STM32G4xx_HAL_Driver/Src/stm32g4xx_hal_dac.c ****        (+) To read the DAC last data output value, use the HAL_DAC_GetValue() function.
 249:Drivers/STM32G4xx_HAL_Driver/Src/stm32g4xx_hal_dac.c ****        (+) Stop the DAC peripheral using HAL_DAC_Stop()
 250:Drivers/STM32G4xx_HAL_Driver/Src/stm32g4xx_hal_dac.c **** 
 251:Drivers/STM32G4xx_HAL_Driver/Src/stm32g4xx_hal_dac.c ****      *** DMA mode IO operation ***
 252:Drivers/STM32G4xx_HAL_Driver/Src/stm32g4xx_hal_dac.c ****      ==============================
 253:Drivers/STM32G4xx_HAL_Driver/Src/stm32g4xx_hal_dac.c ****      [..]
 254:Drivers/STM32G4xx_HAL_Driver/Src/stm32g4xx_hal_dac.c ****        (+) Start the DAC peripheral using HAL_DAC_Start_DMA(), at this stage the user specify the l
 255:Drivers/STM32G4xx_HAL_Driver/Src/stm32g4xx_hal_dac.c ****            of data to be transferred at each end of conversion
 256:Drivers/STM32G4xx_HAL_Driver/Src/stm32g4xx_hal_dac.c ****            First issued trigger will start the conversion of the value previously set by HAL_DAC_Se
 257:Drivers/STM32G4xx_HAL_Driver/Src/stm32g4xx_hal_dac.c ****        (+) At the middle of data transfer HAL_DAC_ConvHalfCpltCallbackCh1() or HAL_DACEx_ConvHalfCp
ARM GAS  /tmp/cchITXCi.s 			page 6


 258:Drivers/STM32G4xx_HAL_Driver/Src/stm32g4xx_hal_dac.c ****            function is executed and user can add his own code by customization of function pointer
 259:Drivers/STM32G4xx_HAL_Driver/Src/stm32g4xx_hal_dac.c ****            HAL_DAC_ConvHalfCpltCallbackCh1() or HAL_DACEx_ConvHalfCpltCallbackCh2()
 260:Drivers/STM32G4xx_HAL_Driver/Src/stm32g4xx_hal_dac.c ****        (+) At The end of data transfer HAL_DAC_ConvCpltCallbackCh1() or HAL_DACEx_ConvHalfCpltCallb
 261:Drivers/STM32G4xx_HAL_Driver/Src/stm32g4xx_hal_dac.c ****            function is executed and user can add his own code by customization of function pointer
 262:Drivers/STM32G4xx_HAL_Driver/Src/stm32g4xx_hal_dac.c ****            HAL_DAC_ConvCpltCallbackCh1() or HAL_DACEx_ConvHalfCpltCallbackCh2()
 263:Drivers/STM32G4xx_HAL_Driver/Src/stm32g4xx_hal_dac.c ****        (+) In case of transfer Error, HAL_DAC_ErrorCallbackCh1() function is executed and user can
 264:Drivers/STM32G4xx_HAL_Driver/Src/stm32g4xx_hal_dac.c ****             add his own code by customization of function pointer HAL_DAC_ErrorCallbackCh1
 265:Drivers/STM32G4xx_HAL_Driver/Src/stm32g4xx_hal_dac.c ****        (+) In case of DMA underrun, DAC interruption triggers and execute internal function HAL_DAC
 266:Drivers/STM32G4xx_HAL_Driver/Src/stm32g4xx_hal_dac.c ****            HAL_DAC_DMAUnderrunCallbackCh1() or HAL_DACEx_DMAUnderrunCallbackCh2()
 267:Drivers/STM32G4xx_HAL_Driver/Src/stm32g4xx_hal_dac.c ****            function is executed and user can add his own code by customization of function pointer
 268:Drivers/STM32G4xx_HAL_Driver/Src/stm32g4xx_hal_dac.c ****            HAL_DAC_DMAUnderrunCallbackCh1() or HAL_DACEx_DMAUnderrunCallbackCh2() and
 269:Drivers/STM32G4xx_HAL_Driver/Src/stm32g4xx_hal_dac.c ****            add his own code by customization of function pointer HAL_DAC_ErrorCallbackCh1()
 270:Drivers/STM32G4xx_HAL_Driver/Src/stm32g4xx_hal_dac.c ****        (+) Stop the DAC peripheral using HAL_DAC_Stop_DMA()
 271:Drivers/STM32G4xx_HAL_Driver/Src/stm32g4xx_hal_dac.c **** 
 272:Drivers/STM32G4xx_HAL_Driver/Src/stm32g4xx_hal_dac.c ****     *** Callback registration ***
 273:Drivers/STM32G4xx_HAL_Driver/Src/stm32g4xx_hal_dac.c ****     =============================================
 274:Drivers/STM32G4xx_HAL_Driver/Src/stm32g4xx_hal_dac.c ****     [..]
 275:Drivers/STM32G4xx_HAL_Driver/Src/stm32g4xx_hal_dac.c ****       The compilation define  USE_HAL_DAC_REGISTER_CALLBACKS when set to 1
 276:Drivers/STM32G4xx_HAL_Driver/Src/stm32g4xx_hal_dac.c ****       allows the user to configure dynamically the driver callbacks.
 277:Drivers/STM32G4xx_HAL_Driver/Src/stm32g4xx_hal_dac.c **** 
 278:Drivers/STM32G4xx_HAL_Driver/Src/stm32g4xx_hal_dac.c ****     Use Functions HAL_DAC_RegisterCallback() to register a user callback,
 279:Drivers/STM32G4xx_HAL_Driver/Src/stm32g4xx_hal_dac.c ****       it allows to register following callbacks:
 280:Drivers/STM32G4xx_HAL_Driver/Src/stm32g4xx_hal_dac.c ****       (+) ConvCpltCallbackCh1     : callback when a half transfer is completed on Ch1.
 281:Drivers/STM32G4xx_HAL_Driver/Src/stm32g4xx_hal_dac.c ****       (+) ConvHalfCpltCallbackCh1 : callback when a transfer is completed on Ch1.
 282:Drivers/STM32G4xx_HAL_Driver/Src/stm32g4xx_hal_dac.c ****       (+) ErrorCallbackCh1        : callback when an error occurs on Ch1.
 283:Drivers/STM32G4xx_HAL_Driver/Src/stm32g4xx_hal_dac.c ****       (+) DMAUnderrunCallbackCh1  : callback when an underrun error occurs on Ch1.
 284:Drivers/STM32G4xx_HAL_Driver/Src/stm32g4xx_hal_dac.c ****       (+) ConvCpltCallbackCh2     : callback when a half transfer is completed on Ch2.
 285:Drivers/STM32G4xx_HAL_Driver/Src/stm32g4xx_hal_dac.c ****       (+) ConvHalfCpltCallbackCh2 : callback when a transfer is completed on Ch2.
 286:Drivers/STM32G4xx_HAL_Driver/Src/stm32g4xx_hal_dac.c ****       (+) ErrorCallbackCh2        : callback when an error occurs on Ch2.
 287:Drivers/STM32G4xx_HAL_Driver/Src/stm32g4xx_hal_dac.c ****       (+) DMAUnderrunCallbackCh2  : callback when an underrun error occurs on Ch2.
 288:Drivers/STM32G4xx_HAL_Driver/Src/stm32g4xx_hal_dac.c ****       (+) MspInitCallback         : DAC MspInit.
 289:Drivers/STM32G4xx_HAL_Driver/Src/stm32g4xx_hal_dac.c ****       (+) MspDeInitCallback       : DAC MspdeInit.
 290:Drivers/STM32G4xx_HAL_Driver/Src/stm32g4xx_hal_dac.c ****       This function takes as parameters the HAL peripheral handle, the Callback ID
 291:Drivers/STM32G4xx_HAL_Driver/Src/stm32g4xx_hal_dac.c ****       and a pointer to the user callback function.
 292:Drivers/STM32G4xx_HAL_Driver/Src/stm32g4xx_hal_dac.c **** 
 293:Drivers/STM32G4xx_HAL_Driver/Src/stm32g4xx_hal_dac.c ****     Use function HAL_DAC_UnRegisterCallback() to reset a callback to the default
 294:Drivers/STM32G4xx_HAL_Driver/Src/stm32g4xx_hal_dac.c ****       weak (surcharged) function. It allows to reset following callbacks:
 295:Drivers/STM32G4xx_HAL_Driver/Src/stm32g4xx_hal_dac.c ****       (+) ConvCpltCallbackCh1     : callback when a half transfer is completed on Ch1.
 296:Drivers/STM32G4xx_HAL_Driver/Src/stm32g4xx_hal_dac.c ****       (+) ConvHalfCpltCallbackCh1 : callback when a transfer is completed on Ch1.
 297:Drivers/STM32G4xx_HAL_Driver/Src/stm32g4xx_hal_dac.c ****       (+) ErrorCallbackCh1        : callback when an error occurs on Ch1.
 298:Drivers/STM32G4xx_HAL_Driver/Src/stm32g4xx_hal_dac.c ****       (+) DMAUnderrunCallbackCh1  : callback when an underrun error occurs on Ch1.
 299:Drivers/STM32G4xx_HAL_Driver/Src/stm32g4xx_hal_dac.c ****       (+) ConvCpltCallbackCh2     : callback when a half transfer is completed on Ch2.
 300:Drivers/STM32G4xx_HAL_Driver/Src/stm32g4xx_hal_dac.c ****       (+) ConvHalfCpltCallbackCh2 : callback when a transfer is completed on Ch2.
 301:Drivers/STM32G4xx_HAL_Driver/Src/stm32g4xx_hal_dac.c ****       (+) ErrorCallbackCh2        : callback when an error occurs on Ch2.
 302:Drivers/STM32G4xx_HAL_Driver/Src/stm32g4xx_hal_dac.c ****       (+) DMAUnderrunCallbackCh2  : callback when an underrun error occurs on Ch2.
 303:Drivers/STM32G4xx_HAL_Driver/Src/stm32g4xx_hal_dac.c ****       (+) MspInitCallback         : DAC MspInit.
 304:Drivers/STM32G4xx_HAL_Driver/Src/stm32g4xx_hal_dac.c ****       (+) MspDeInitCallback       : DAC MspdeInit.
 305:Drivers/STM32G4xx_HAL_Driver/Src/stm32g4xx_hal_dac.c ****       (+) All Callbacks
 306:Drivers/STM32G4xx_HAL_Driver/Src/stm32g4xx_hal_dac.c ****       This function) takes as parameters the HAL peripheral handle and the Callback ID.
 307:Drivers/STM32G4xx_HAL_Driver/Src/stm32g4xx_hal_dac.c **** 
 308:Drivers/STM32G4xx_HAL_Driver/Src/stm32g4xx_hal_dac.c ****       By default, after the HAL_DAC_Init and if the state is HAL_DAC_STATE_RESET
 309:Drivers/STM32G4xx_HAL_Driver/Src/stm32g4xx_hal_dac.c ****       all callbacks are reset to the corresponding legacy weak (surcharged) functions.
 310:Drivers/STM32G4xx_HAL_Driver/Src/stm32g4xx_hal_dac.c ****       Exception done for MspInit and MspDeInit callbacks that are respectively
 311:Drivers/STM32G4xx_HAL_Driver/Src/stm32g4xx_hal_dac.c ****       reset to the legacy weak (surcharged) functions in the HAL_DAC_Init
 312:Drivers/STM32G4xx_HAL_Driver/Src/stm32g4xx_hal_dac.c ****       and  HAL_DAC_DeInit only when these callbacks are null (not registered beforehand).
 313:Drivers/STM32G4xx_HAL_Driver/Src/stm32g4xx_hal_dac.c ****       If not, MspInit or MspDeInit are not null, the HAL_DAC_Init and HAL_DAC_DeInit
 314:Drivers/STM32G4xx_HAL_Driver/Src/stm32g4xx_hal_dac.c ****       keep and use the user MspInit/MspDeInit callbacks (registered beforehand)
ARM GAS  /tmp/cchITXCi.s 			page 7


 315:Drivers/STM32G4xx_HAL_Driver/Src/stm32g4xx_hal_dac.c **** 
 316:Drivers/STM32G4xx_HAL_Driver/Src/stm32g4xx_hal_dac.c ****       Callbacks can be registered/unregistered in READY state only.
 317:Drivers/STM32G4xx_HAL_Driver/Src/stm32g4xx_hal_dac.c ****       Exception done for MspInit/MspDeInit callbacks that can be registered/unregistered
 318:Drivers/STM32G4xx_HAL_Driver/Src/stm32g4xx_hal_dac.c ****       in READY or RESET state, thus registered (user) MspInit/DeInit callbacks can be used
 319:Drivers/STM32G4xx_HAL_Driver/Src/stm32g4xx_hal_dac.c ****       during the Init/DeInit.
 320:Drivers/STM32G4xx_HAL_Driver/Src/stm32g4xx_hal_dac.c ****       In that case first register the MspInit/MspDeInit user callbacks
 321:Drivers/STM32G4xx_HAL_Driver/Src/stm32g4xx_hal_dac.c ****       using HAL_DAC_RegisterCallback before calling HAL_DAC_DeInit
 322:Drivers/STM32G4xx_HAL_Driver/Src/stm32g4xx_hal_dac.c ****       or HAL_DAC_Init function.
 323:Drivers/STM32G4xx_HAL_Driver/Src/stm32g4xx_hal_dac.c **** 
 324:Drivers/STM32G4xx_HAL_Driver/Src/stm32g4xx_hal_dac.c ****       When The compilation define USE_HAL_DAC_REGISTER_CALLBACKS is set to 0 or
 325:Drivers/STM32G4xx_HAL_Driver/Src/stm32g4xx_hal_dac.c ****       not defined, the callback registering feature is not available
 326:Drivers/STM32G4xx_HAL_Driver/Src/stm32g4xx_hal_dac.c ****       and weak (surcharged) callbacks are used.
 327:Drivers/STM32G4xx_HAL_Driver/Src/stm32g4xx_hal_dac.c **** 
 328:Drivers/STM32G4xx_HAL_Driver/Src/stm32g4xx_hal_dac.c ****      *** DAC HAL driver macros list ***
 329:Drivers/STM32G4xx_HAL_Driver/Src/stm32g4xx_hal_dac.c ****      =============================================
 330:Drivers/STM32G4xx_HAL_Driver/Src/stm32g4xx_hal_dac.c ****      [..]
 331:Drivers/STM32G4xx_HAL_Driver/Src/stm32g4xx_hal_dac.c ****        Below the list of most used macros in DAC HAL driver.
 332:Drivers/STM32G4xx_HAL_Driver/Src/stm32g4xx_hal_dac.c **** 
 333:Drivers/STM32G4xx_HAL_Driver/Src/stm32g4xx_hal_dac.c ****       (+) __HAL_DAC_ENABLE : Enable the DAC peripheral
 334:Drivers/STM32G4xx_HAL_Driver/Src/stm32g4xx_hal_dac.c ****       (+) __HAL_DAC_DISABLE : Disable the DAC peripheral
 335:Drivers/STM32G4xx_HAL_Driver/Src/stm32g4xx_hal_dac.c ****       (+) __HAL_DAC_CLEAR_FLAG: Clear the DAC's pending flags
 336:Drivers/STM32G4xx_HAL_Driver/Src/stm32g4xx_hal_dac.c ****       (+) __HAL_DAC_GET_FLAG: Get the selected DAC's flag status
 337:Drivers/STM32G4xx_HAL_Driver/Src/stm32g4xx_hal_dac.c **** 
 338:Drivers/STM32G4xx_HAL_Driver/Src/stm32g4xx_hal_dac.c ****      [..]
 339:Drivers/STM32G4xx_HAL_Driver/Src/stm32g4xx_hal_dac.c ****       (@) You can refer to the DAC HAL driver header file for more useful macros
 340:Drivers/STM32G4xx_HAL_Driver/Src/stm32g4xx_hal_dac.c **** 
 341:Drivers/STM32G4xx_HAL_Driver/Src/stm32g4xx_hal_dac.c **** @endverbatim
 342:Drivers/STM32G4xx_HAL_Driver/Src/stm32g4xx_hal_dac.c ****   ******************************************************************************
 343:Drivers/STM32G4xx_HAL_Driver/Src/stm32g4xx_hal_dac.c ****   */
 344:Drivers/STM32G4xx_HAL_Driver/Src/stm32g4xx_hal_dac.c **** 
 345:Drivers/STM32G4xx_HAL_Driver/Src/stm32g4xx_hal_dac.c **** /* Includes ------------------------------------------------------------------*/
 346:Drivers/STM32G4xx_HAL_Driver/Src/stm32g4xx_hal_dac.c **** #include "stm32g4xx_hal.h"
 347:Drivers/STM32G4xx_HAL_Driver/Src/stm32g4xx_hal_dac.c **** 
 348:Drivers/STM32G4xx_HAL_Driver/Src/stm32g4xx_hal_dac.c **** /** @addtogroup STM32G4xx_HAL_Driver
 349:Drivers/STM32G4xx_HAL_Driver/Src/stm32g4xx_hal_dac.c ****   * @{
 350:Drivers/STM32G4xx_HAL_Driver/Src/stm32g4xx_hal_dac.c ****   */
 351:Drivers/STM32G4xx_HAL_Driver/Src/stm32g4xx_hal_dac.c **** 
 352:Drivers/STM32G4xx_HAL_Driver/Src/stm32g4xx_hal_dac.c **** #ifdef HAL_DAC_MODULE_ENABLED
 353:Drivers/STM32G4xx_HAL_Driver/Src/stm32g4xx_hal_dac.c **** #if defined(DAC1) || defined(DAC2) || defined(DAC3) ||defined (DAC4)
 354:Drivers/STM32G4xx_HAL_Driver/Src/stm32g4xx_hal_dac.c **** 
 355:Drivers/STM32G4xx_HAL_Driver/Src/stm32g4xx_hal_dac.c **** /** @defgroup DAC DAC
 356:Drivers/STM32G4xx_HAL_Driver/Src/stm32g4xx_hal_dac.c ****   * @brief DAC driver modules
 357:Drivers/STM32G4xx_HAL_Driver/Src/stm32g4xx_hal_dac.c ****   * @{
 358:Drivers/STM32G4xx_HAL_Driver/Src/stm32g4xx_hal_dac.c ****   */
 359:Drivers/STM32G4xx_HAL_Driver/Src/stm32g4xx_hal_dac.c **** 
 360:Drivers/STM32G4xx_HAL_Driver/Src/stm32g4xx_hal_dac.c **** /* Private typedef -----------------------------------------------------------*/
 361:Drivers/STM32G4xx_HAL_Driver/Src/stm32g4xx_hal_dac.c **** /* Private define ------------------------------------------------------------*/
 362:Drivers/STM32G4xx_HAL_Driver/Src/stm32g4xx_hal_dac.c **** /* Private constants ---------------------------------------------------------*/
 363:Drivers/STM32G4xx_HAL_Driver/Src/stm32g4xx_hal_dac.c **** /** @addtogroup DAC_Private_Constants DAC Private Constants
 364:Drivers/STM32G4xx_HAL_Driver/Src/stm32g4xx_hal_dac.c ****   * @{
 365:Drivers/STM32G4xx_HAL_Driver/Src/stm32g4xx_hal_dac.c ****   */
 366:Drivers/STM32G4xx_HAL_Driver/Src/stm32g4xx_hal_dac.c **** #define TIMEOUT_DAC_CALIBCONFIG        1U         /* 1   ms        */
 367:Drivers/STM32G4xx_HAL_Driver/Src/stm32g4xx_hal_dac.c **** #define HFSEL_ENABLE_THRESHOLD_80MHZ   80000000U  /* 80 MHz        */
 368:Drivers/STM32G4xx_HAL_Driver/Src/stm32g4xx_hal_dac.c **** #define HFSEL_ENABLE_THRESHOLD_160MHZ  160000000U /* 160 MHz       */
 369:Drivers/STM32G4xx_HAL_Driver/Src/stm32g4xx_hal_dac.c **** 
 370:Drivers/STM32G4xx_HAL_Driver/Src/stm32g4xx_hal_dac.c **** /**
 371:Drivers/STM32G4xx_HAL_Driver/Src/stm32g4xx_hal_dac.c ****   * @}
ARM GAS  /tmp/cchITXCi.s 			page 8


 372:Drivers/STM32G4xx_HAL_Driver/Src/stm32g4xx_hal_dac.c ****   */
 373:Drivers/STM32G4xx_HAL_Driver/Src/stm32g4xx_hal_dac.c **** 
 374:Drivers/STM32G4xx_HAL_Driver/Src/stm32g4xx_hal_dac.c **** /* Private macro -------------------------------------------------------------*/
 375:Drivers/STM32G4xx_HAL_Driver/Src/stm32g4xx_hal_dac.c **** /* Private variables ---------------------------------------------------------*/
 376:Drivers/STM32G4xx_HAL_Driver/Src/stm32g4xx_hal_dac.c **** /* Private function prototypes -----------------------------------------------*/
 377:Drivers/STM32G4xx_HAL_Driver/Src/stm32g4xx_hal_dac.c **** /* Exported functions -------------------------------------------------------*/
 378:Drivers/STM32G4xx_HAL_Driver/Src/stm32g4xx_hal_dac.c **** 
 379:Drivers/STM32G4xx_HAL_Driver/Src/stm32g4xx_hal_dac.c **** /** @defgroup DAC_Exported_Functions DAC Exported Functions
 380:Drivers/STM32G4xx_HAL_Driver/Src/stm32g4xx_hal_dac.c ****   * @{
 381:Drivers/STM32G4xx_HAL_Driver/Src/stm32g4xx_hal_dac.c ****   */
 382:Drivers/STM32G4xx_HAL_Driver/Src/stm32g4xx_hal_dac.c **** 
 383:Drivers/STM32G4xx_HAL_Driver/Src/stm32g4xx_hal_dac.c **** /** @defgroup DAC_Exported_Functions_Group1 Initialization and de-initialization functions
 384:Drivers/STM32G4xx_HAL_Driver/Src/stm32g4xx_hal_dac.c ****   *  @brief    Initialization and Configuration functions
 385:Drivers/STM32G4xx_HAL_Driver/Src/stm32g4xx_hal_dac.c ****   *
 386:Drivers/STM32G4xx_HAL_Driver/Src/stm32g4xx_hal_dac.c **** @verbatim
 387:Drivers/STM32G4xx_HAL_Driver/Src/stm32g4xx_hal_dac.c ****   ==============================================================================
 388:Drivers/STM32G4xx_HAL_Driver/Src/stm32g4xx_hal_dac.c ****               ##### Initialization and de-initialization functions #####
 389:Drivers/STM32G4xx_HAL_Driver/Src/stm32g4xx_hal_dac.c ****   ==============================================================================
 390:Drivers/STM32G4xx_HAL_Driver/Src/stm32g4xx_hal_dac.c ****     [..]  This section provides functions allowing to:
 391:Drivers/STM32G4xx_HAL_Driver/Src/stm32g4xx_hal_dac.c ****       (+) Initialize and configure the DAC.
 392:Drivers/STM32G4xx_HAL_Driver/Src/stm32g4xx_hal_dac.c ****       (+) De-initialize the DAC.
 393:Drivers/STM32G4xx_HAL_Driver/Src/stm32g4xx_hal_dac.c **** 
 394:Drivers/STM32G4xx_HAL_Driver/Src/stm32g4xx_hal_dac.c **** @endverbatim
 395:Drivers/STM32G4xx_HAL_Driver/Src/stm32g4xx_hal_dac.c ****   * @{
 396:Drivers/STM32G4xx_HAL_Driver/Src/stm32g4xx_hal_dac.c ****   */
 397:Drivers/STM32G4xx_HAL_Driver/Src/stm32g4xx_hal_dac.c **** 
 398:Drivers/STM32G4xx_HAL_Driver/Src/stm32g4xx_hal_dac.c **** /**
 399:Drivers/STM32G4xx_HAL_Driver/Src/stm32g4xx_hal_dac.c ****   * @brief  Initialize the DAC peripheral according to the specified parameters
 400:Drivers/STM32G4xx_HAL_Driver/Src/stm32g4xx_hal_dac.c ****   *         in the DAC_InitStruct and initialize the associated handle.
 401:Drivers/STM32G4xx_HAL_Driver/Src/stm32g4xx_hal_dac.c ****   * @param  hdac pointer to a DAC_HandleTypeDef structure that contains
 402:Drivers/STM32G4xx_HAL_Driver/Src/stm32g4xx_hal_dac.c ****   *         the configuration information for the specified DAC.
 403:Drivers/STM32G4xx_HAL_Driver/Src/stm32g4xx_hal_dac.c ****   * @retval HAL status
 404:Drivers/STM32G4xx_HAL_Driver/Src/stm32g4xx_hal_dac.c ****   */
 405:Drivers/STM32G4xx_HAL_Driver/Src/stm32g4xx_hal_dac.c **** HAL_StatusTypeDef HAL_DAC_Init(DAC_HandleTypeDef *hdac)
 406:Drivers/STM32G4xx_HAL_Driver/Src/stm32g4xx_hal_dac.c **** {
 407:Drivers/STM32G4xx_HAL_Driver/Src/stm32g4xx_hal_dac.c ****   /* Check DAC handle */
 408:Drivers/STM32G4xx_HAL_Driver/Src/stm32g4xx_hal_dac.c ****   if (hdac == NULL)
 409:Drivers/STM32G4xx_HAL_Driver/Src/stm32g4xx_hal_dac.c ****   {
 410:Drivers/STM32G4xx_HAL_Driver/Src/stm32g4xx_hal_dac.c ****     return HAL_ERROR;
 411:Drivers/STM32G4xx_HAL_Driver/Src/stm32g4xx_hal_dac.c ****   }
 412:Drivers/STM32G4xx_HAL_Driver/Src/stm32g4xx_hal_dac.c ****   /* Check the parameters */
 413:Drivers/STM32G4xx_HAL_Driver/Src/stm32g4xx_hal_dac.c ****   assert_param(IS_DAC_ALL_INSTANCE(hdac->Instance));
 414:Drivers/STM32G4xx_HAL_Driver/Src/stm32g4xx_hal_dac.c **** 
 415:Drivers/STM32G4xx_HAL_Driver/Src/stm32g4xx_hal_dac.c ****   if (hdac->State == HAL_DAC_STATE_RESET)
 416:Drivers/STM32G4xx_HAL_Driver/Src/stm32g4xx_hal_dac.c ****   {
 417:Drivers/STM32G4xx_HAL_Driver/Src/stm32g4xx_hal_dac.c **** #if (USE_HAL_DAC_REGISTER_CALLBACKS == 1)
 418:Drivers/STM32G4xx_HAL_Driver/Src/stm32g4xx_hal_dac.c ****     /* Init the DAC Callback settings */
 419:Drivers/STM32G4xx_HAL_Driver/Src/stm32g4xx_hal_dac.c ****     hdac->ConvCpltCallbackCh1           = HAL_DAC_ConvCpltCallbackCh1;
 420:Drivers/STM32G4xx_HAL_Driver/Src/stm32g4xx_hal_dac.c ****     hdac->ConvHalfCpltCallbackCh1       = HAL_DAC_ConvHalfCpltCallbackCh1;
 421:Drivers/STM32G4xx_HAL_Driver/Src/stm32g4xx_hal_dac.c ****     hdac->ErrorCallbackCh1              = HAL_DAC_ErrorCallbackCh1;
 422:Drivers/STM32G4xx_HAL_Driver/Src/stm32g4xx_hal_dac.c ****     hdac->DMAUnderrunCallbackCh1        = HAL_DAC_DMAUnderrunCallbackCh1;
 423:Drivers/STM32G4xx_HAL_Driver/Src/stm32g4xx_hal_dac.c **** 
 424:Drivers/STM32G4xx_HAL_Driver/Src/stm32g4xx_hal_dac.c ****     hdac->ConvCpltCallbackCh2           = HAL_DACEx_ConvCpltCallbackCh2;
 425:Drivers/STM32G4xx_HAL_Driver/Src/stm32g4xx_hal_dac.c ****     hdac->ConvHalfCpltCallbackCh2       = HAL_DACEx_ConvHalfCpltCallbackCh2;
 426:Drivers/STM32G4xx_HAL_Driver/Src/stm32g4xx_hal_dac.c ****     hdac->ErrorCallbackCh2              = HAL_DACEx_ErrorCallbackCh2;
 427:Drivers/STM32G4xx_HAL_Driver/Src/stm32g4xx_hal_dac.c ****     hdac->DMAUnderrunCallbackCh2        = HAL_DACEx_DMAUnderrunCallbackCh2;
 428:Drivers/STM32G4xx_HAL_Driver/Src/stm32g4xx_hal_dac.c **** 
ARM GAS  /tmp/cchITXCi.s 			page 9


 429:Drivers/STM32G4xx_HAL_Driver/Src/stm32g4xx_hal_dac.c ****     if (hdac->MspInitCallback == NULL)
 430:Drivers/STM32G4xx_HAL_Driver/Src/stm32g4xx_hal_dac.c ****     {
 431:Drivers/STM32G4xx_HAL_Driver/Src/stm32g4xx_hal_dac.c ****       hdac->MspInitCallback             = HAL_DAC_MspInit;
 432:Drivers/STM32G4xx_HAL_Driver/Src/stm32g4xx_hal_dac.c ****     }
 433:Drivers/STM32G4xx_HAL_Driver/Src/stm32g4xx_hal_dac.c **** #endif /* USE_HAL_DAC_REGISTER_CALLBACKS */
 434:Drivers/STM32G4xx_HAL_Driver/Src/stm32g4xx_hal_dac.c **** 
 435:Drivers/STM32G4xx_HAL_Driver/Src/stm32g4xx_hal_dac.c ****     /* Allocate lock resource and initialize it */
 436:Drivers/STM32G4xx_HAL_Driver/Src/stm32g4xx_hal_dac.c ****     hdac->Lock = HAL_UNLOCKED;
 437:Drivers/STM32G4xx_HAL_Driver/Src/stm32g4xx_hal_dac.c **** 
 438:Drivers/STM32G4xx_HAL_Driver/Src/stm32g4xx_hal_dac.c **** #if (USE_HAL_DAC_REGISTER_CALLBACKS == 1)
 439:Drivers/STM32G4xx_HAL_Driver/Src/stm32g4xx_hal_dac.c ****     /* Init the low level hardware */
 440:Drivers/STM32G4xx_HAL_Driver/Src/stm32g4xx_hal_dac.c ****     hdac->MspInitCallback(hdac);
 441:Drivers/STM32G4xx_HAL_Driver/Src/stm32g4xx_hal_dac.c **** #else
 442:Drivers/STM32G4xx_HAL_Driver/Src/stm32g4xx_hal_dac.c ****     /* Init the low level hardware */
 443:Drivers/STM32G4xx_HAL_Driver/Src/stm32g4xx_hal_dac.c ****     HAL_DAC_MspInit(hdac);
 444:Drivers/STM32G4xx_HAL_Driver/Src/stm32g4xx_hal_dac.c **** #endif /* USE_HAL_DAC_REGISTER_CALLBACKS */
 445:Drivers/STM32G4xx_HAL_Driver/Src/stm32g4xx_hal_dac.c ****   }
 446:Drivers/STM32G4xx_HAL_Driver/Src/stm32g4xx_hal_dac.c **** 
 447:Drivers/STM32G4xx_HAL_Driver/Src/stm32g4xx_hal_dac.c ****   /* Initialize the DAC state*/
 448:Drivers/STM32G4xx_HAL_Driver/Src/stm32g4xx_hal_dac.c ****   hdac->State = HAL_DAC_STATE_BUSY;
 449:Drivers/STM32G4xx_HAL_Driver/Src/stm32g4xx_hal_dac.c **** 
 450:Drivers/STM32G4xx_HAL_Driver/Src/stm32g4xx_hal_dac.c ****   /* Set DAC error code to none */
 451:Drivers/STM32G4xx_HAL_Driver/Src/stm32g4xx_hal_dac.c ****   hdac->ErrorCode = HAL_DAC_ERROR_NONE;
 452:Drivers/STM32G4xx_HAL_Driver/Src/stm32g4xx_hal_dac.c **** 
 453:Drivers/STM32G4xx_HAL_Driver/Src/stm32g4xx_hal_dac.c ****   /* Initialize the DAC state*/
 454:Drivers/STM32G4xx_HAL_Driver/Src/stm32g4xx_hal_dac.c ****   hdac->State = HAL_DAC_STATE_READY;
 455:Drivers/STM32G4xx_HAL_Driver/Src/stm32g4xx_hal_dac.c **** 
 456:Drivers/STM32G4xx_HAL_Driver/Src/stm32g4xx_hal_dac.c ****   /* Return function status */
 457:Drivers/STM32G4xx_HAL_Driver/Src/stm32g4xx_hal_dac.c ****   return HAL_OK;
 458:Drivers/STM32G4xx_HAL_Driver/Src/stm32g4xx_hal_dac.c **** }
 459:Drivers/STM32G4xx_HAL_Driver/Src/stm32g4xx_hal_dac.c **** 
 460:Drivers/STM32G4xx_HAL_Driver/Src/stm32g4xx_hal_dac.c **** /**
 461:Drivers/STM32G4xx_HAL_Driver/Src/stm32g4xx_hal_dac.c ****   * @brief  Deinitialize the DAC peripheral registers to their default reset values.
 462:Drivers/STM32G4xx_HAL_Driver/Src/stm32g4xx_hal_dac.c ****   * @param  hdac pointer to a DAC_HandleTypeDef structure that contains
 463:Drivers/STM32G4xx_HAL_Driver/Src/stm32g4xx_hal_dac.c ****   *         the configuration information for the specified DAC.
 464:Drivers/STM32G4xx_HAL_Driver/Src/stm32g4xx_hal_dac.c ****   * @retval HAL status
 465:Drivers/STM32G4xx_HAL_Driver/Src/stm32g4xx_hal_dac.c ****   */
 466:Drivers/STM32G4xx_HAL_Driver/Src/stm32g4xx_hal_dac.c **** HAL_StatusTypeDef HAL_DAC_DeInit(DAC_HandleTypeDef *hdac)
 467:Drivers/STM32G4xx_HAL_Driver/Src/stm32g4xx_hal_dac.c **** {
 468:Drivers/STM32G4xx_HAL_Driver/Src/stm32g4xx_hal_dac.c ****   /* Check DAC handle */
 469:Drivers/STM32G4xx_HAL_Driver/Src/stm32g4xx_hal_dac.c ****   if (hdac == NULL)
 470:Drivers/STM32G4xx_HAL_Driver/Src/stm32g4xx_hal_dac.c ****   {
 471:Drivers/STM32G4xx_HAL_Driver/Src/stm32g4xx_hal_dac.c ****     return HAL_ERROR;
 472:Drivers/STM32G4xx_HAL_Driver/Src/stm32g4xx_hal_dac.c ****   }
 473:Drivers/STM32G4xx_HAL_Driver/Src/stm32g4xx_hal_dac.c **** 
 474:Drivers/STM32G4xx_HAL_Driver/Src/stm32g4xx_hal_dac.c ****   /* Check the parameters */
 475:Drivers/STM32G4xx_HAL_Driver/Src/stm32g4xx_hal_dac.c ****   assert_param(IS_DAC_ALL_INSTANCE(hdac->Instance));
 476:Drivers/STM32G4xx_HAL_Driver/Src/stm32g4xx_hal_dac.c **** 
 477:Drivers/STM32G4xx_HAL_Driver/Src/stm32g4xx_hal_dac.c ****   /* Change DAC state */
 478:Drivers/STM32G4xx_HAL_Driver/Src/stm32g4xx_hal_dac.c ****   hdac->State = HAL_DAC_STATE_BUSY;
 479:Drivers/STM32G4xx_HAL_Driver/Src/stm32g4xx_hal_dac.c **** 
 480:Drivers/STM32G4xx_HAL_Driver/Src/stm32g4xx_hal_dac.c **** #if (USE_HAL_DAC_REGISTER_CALLBACKS == 1)
 481:Drivers/STM32G4xx_HAL_Driver/Src/stm32g4xx_hal_dac.c ****   if (hdac->MspDeInitCallback == NULL)
 482:Drivers/STM32G4xx_HAL_Driver/Src/stm32g4xx_hal_dac.c ****   {
 483:Drivers/STM32G4xx_HAL_Driver/Src/stm32g4xx_hal_dac.c ****     hdac->MspDeInitCallback = HAL_DAC_MspDeInit;
 484:Drivers/STM32G4xx_HAL_Driver/Src/stm32g4xx_hal_dac.c ****   }
 485:Drivers/STM32G4xx_HAL_Driver/Src/stm32g4xx_hal_dac.c ****   /* DeInit the low level hardware */
ARM GAS  /tmp/cchITXCi.s 			page 10


 486:Drivers/STM32G4xx_HAL_Driver/Src/stm32g4xx_hal_dac.c ****   hdac->MspDeInitCallback(hdac);
 487:Drivers/STM32G4xx_HAL_Driver/Src/stm32g4xx_hal_dac.c **** #else
 488:Drivers/STM32G4xx_HAL_Driver/Src/stm32g4xx_hal_dac.c ****   /* DeInit the low level hardware */
 489:Drivers/STM32G4xx_HAL_Driver/Src/stm32g4xx_hal_dac.c ****   HAL_DAC_MspDeInit(hdac);
 490:Drivers/STM32G4xx_HAL_Driver/Src/stm32g4xx_hal_dac.c **** #endif /* USE_HAL_DAC_REGISTER_CALLBACKS */
 491:Drivers/STM32G4xx_HAL_Driver/Src/stm32g4xx_hal_dac.c **** 
 492:Drivers/STM32G4xx_HAL_Driver/Src/stm32g4xx_hal_dac.c ****   /* Set DAC error code to none */
 493:Drivers/STM32G4xx_HAL_Driver/Src/stm32g4xx_hal_dac.c ****   hdac->ErrorCode = HAL_DAC_ERROR_NONE;
 494:Drivers/STM32G4xx_HAL_Driver/Src/stm32g4xx_hal_dac.c **** 
 495:Drivers/STM32G4xx_HAL_Driver/Src/stm32g4xx_hal_dac.c ****   /* Change DAC state */
 496:Drivers/STM32G4xx_HAL_Driver/Src/stm32g4xx_hal_dac.c ****   hdac->State = HAL_DAC_STATE_RESET;
 497:Drivers/STM32G4xx_HAL_Driver/Src/stm32g4xx_hal_dac.c **** 
 498:Drivers/STM32G4xx_HAL_Driver/Src/stm32g4xx_hal_dac.c ****   /* Release Lock */
 499:Drivers/STM32G4xx_HAL_Driver/Src/stm32g4xx_hal_dac.c ****   __HAL_UNLOCK(hdac);
 500:Drivers/STM32G4xx_HAL_Driver/Src/stm32g4xx_hal_dac.c **** 
 501:Drivers/STM32G4xx_HAL_Driver/Src/stm32g4xx_hal_dac.c ****   /* Return function status */
 502:Drivers/STM32G4xx_HAL_Driver/Src/stm32g4xx_hal_dac.c ****   return HAL_OK;
 503:Drivers/STM32G4xx_HAL_Driver/Src/stm32g4xx_hal_dac.c **** }
 504:Drivers/STM32G4xx_HAL_Driver/Src/stm32g4xx_hal_dac.c **** 
 505:Drivers/STM32G4xx_HAL_Driver/Src/stm32g4xx_hal_dac.c **** /**
 506:Drivers/STM32G4xx_HAL_Driver/Src/stm32g4xx_hal_dac.c ****   * @brief  Initialize the DAC MSP.
 507:Drivers/STM32G4xx_HAL_Driver/Src/stm32g4xx_hal_dac.c ****   * @param  hdac pointer to a DAC_HandleTypeDef structure that contains
 508:Drivers/STM32G4xx_HAL_Driver/Src/stm32g4xx_hal_dac.c ****   *         the configuration information for the specified DAC.
 509:Drivers/STM32G4xx_HAL_Driver/Src/stm32g4xx_hal_dac.c ****   * @retval None
 510:Drivers/STM32G4xx_HAL_Driver/Src/stm32g4xx_hal_dac.c ****   */
 511:Drivers/STM32G4xx_HAL_Driver/Src/stm32g4xx_hal_dac.c **** __weak void HAL_DAC_MspInit(DAC_HandleTypeDef *hdac)
 512:Drivers/STM32G4xx_HAL_Driver/Src/stm32g4xx_hal_dac.c **** {
  30              		.loc 1 512 1 view -0
  31              		.cfi_startproc
  32              		@ args = 0, pretend = 0, frame = 0
  33              		@ frame_needed = 0, uses_anonymous_args = 0
  34              		@ link register save eliminated.
 513:Drivers/STM32G4xx_HAL_Driver/Src/stm32g4xx_hal_dac.c ****   /* Prevent unused argument(s) compilation warning */
 514:Drivers/STM32G4xx_HAL_Driver/Src/stm32g4xx_hal_dac.c ****   UNUSED(hdac);
  35              		.loc 1 514 3 view .LVU1
 515:Drivers/STM32G4xx_HAL_Driver/Src/stm32g4xx_hal_dac.c **** 
 516:Drivers/STM32G4xx_HAL_Driver/Src/stm32g4xx_hal_dac.c ****   /* NOTE : This function should not be modified, when the callback is needed,
 517:Drivers/STM32G4xx_HAL_Driver/Src/stm32g4xx_hal_dac.c ****             the HAL_DAC_MspInit could be implemented in the user file
 518:Drivers/STM32G4xx_HAL_Driver/Src/stm32g4xx_hal_dac.c ****    */
 519:Drivers/STM32G4xx_HAL_Driver/Src/stm32g4xx_hal_dac.c **** }
  36              		.loc 1 519 1 is_stmt 0 view .LVU2
  37 0000 7047     		bx	lr
  38              		.cfi_endproc
  39              	.LFE134:
  41              		.section	.text.HAL_DAC_Init,"ax",%progbits
  42              		.align	1
  43              		.global	HAL_DAC_Init
  44              		.syntax unified
  45              		.thumb
  46              		.thumb_func
  47              		.fpu fpv4-sp-d16
  49              	HAL_DAC_Init:
  50              	.LVL1:
  51              	.LFB132:
 406:Drivers/STM32G4xx_HAL_Driver/Src/stm32g4xx_hal_dac.c ****   /* Check DAC handle */
  52              		.loc 1 406 1 is_stmt 1 view -0
  53              		.cfi_startproc
ARM GAS  /tmp/cchITXCi.s 			page 11


  54              		@ args = 0, pretend = 0, frame = 0
  55              		@ frame_needed = 0, uses_anonymous_args = 0
 408:Drivers/STM32G4xx_HAL_Driver/Src/stm32g4xx_hal_dac.c ****   {
  56              		.loc 1 408 3 view .LVU4
 408:Drivers/STM32G4xx_HAL_Driver/Src/stm32g4xx_hal_dac.c ****   {
  57              		.loc 1 408 6 is_stmt 0 view .LVU5
  58 0000 70B1     		cbz	r0, .L5
 406:Drivers/STM32G4xx_HAL_Driver/Src/stm32g4xx_hal_dac.c ****   /* Check DAC handle */
  59              		.loc 1 406 1 view .LVU6
  60 0002 10B5     		push	{r4, lr}
  61              	.LCFI0:
  62              		.cfi_def_cfa_offset 8
  63              		.cfi_offset 4, -8
  64              		.cfi_offset 14, -4
  65 0004 0446     		mov	r4, r0
 413:Drivers/STM32G4xx_HAL_Driver/Src/stm32g4xx_hal_dac.c **** 
  66              		.loc 1 413 3 is_stmt 1 view .LVU7
 415:Drivers/STM32G4xx_HAL_Driver/Src/stm32g4xx_hal_dac.c ****   {
  67              		.loc 1 415 3 view .LVU8
 415:Drivers/STM32G4xx_HAL_Driver/Src/stm32g4xx_hal_dac.c ****   {
  68              		.loc 1 415 11 is_stmt 0 view .LVU9
  69 0006 0379     		ldrb	r3, [r0, #4]	@ zero_extendqisi2
 415:Drivers/STM32G4xx_HAL_Driver/Src/stm32g4xx_hal_dac.c ****   {
  70              		.loc 1 415 6 view .LVU10
  71 0008 33B1     		cbz	r3, .L10
  72              	.LVL2:
  73              	.L4:
 448:Drivers/STM32G4xx_HAL_Driver/Src/stm32g4xx_hal_dac.c **** 
  74              		.loc 1 448 3 is_stmt 1 view .LVU11
 448:Drivers/STM32G4xx_HAL_Driver/Src/stm32g4xx_hal_dac.c **** 
  75              		.loc 1 448 15 is_stmt 0 view .LVU12
  76 000a 0223     		movs	r3, #2
  77 000c 2371     		strb	r3, [r4, #4]
 451:Drivers/STM32G4xx_HAL_Driver/Src/stm32g4xx_hal_dac.c **** 
  78              		.loc 1 451 3 is_stmt 1 view .LVU13
 451:Drivers/STM32G4xx_HAL_Driver/Src/stm32g4xx_hal_dac.c **** 
  79              		.loc 1 451 19 is_stmt 0 view .LVU14
  80 000e 0020     		movs	r0, #0
  81 0010 2061     		str	r0, [r4, #16]
 454:Drivers/STM32G4xx_HAL_Driver/Src/stm32g4xx_hal_dac.c **** 
  82              		.loc 1 454 3 is_stmt 1 view .LVU15
 454:Drivers/STM32G4xx_HAL_Driver/Src/stm32g4xx_hal_dac.c **** 
  83              		.loc 1 454 15 is_stmt 0 view .LVU16
  84 0012 0123     		movs	r3, #1
  85 0014 2371     		strb	r3, [r4, #4]
 457:Drivers/STM32G4xx_HAL_Driver/Src/stm32g4xx_hal_dac.c **** }
  86              		.loc 1 457 3 is_stmt 1 view .LVU17
 458:Drivers/STM32G4xx_HAL_Driver/Src/stm32g4xx_hal_dac.c **** 
  87              		.loc 1 458 1 is_stmt 0 view .LVU18
  88 0016 10BD     		pop	{r4, pc}
  89              	.LVL3:
  90              	.L10:
 436:Drivers/STM32G4xx_HAL_Driver/Src/stm32g4xx_hal_dac.c **** 
  91              		.loc 1 436 5 is_stmt 1 view .LVU19
 436:Drivers/STM32G4xx_HAL_Driver/Src/stm32g4xx_hal_dac.c **** 
  92              		.loc 1 436 16 is_stmt 0 view .LVU20
  93 0018 4371     		strb	r3, [r0, #5]
ARM GAS  /tmp/cchITXCi.s 			page 12


 443:Drivers/STM32G4xx_HAL_Driver/Src/stm32g4xx_hal_dac.c **** #endif /* USE_HAL_DAC_REGISTER_CALLBACKS */
  94              		.loc 1 443 5 is_stmt 1 view .LVU21
  95 001a FFF7FEFF 		bl	HAL_DAC_MspInit
  96              	.LVL4:
 443:Drivers/STM32G4xx_HAL_Driver/Src/stm32g4xx_hal_dac.c **** #endif /* USE_HAL_DAC_REGISTER_CALLBACKS */
  97              		.loc 1 443 5 is_stmt 0 view .LVU22
  98 001e F4E7     		b	.L4
  99              	.LVL5:
 100              	.L5:
 101              	.LCFI1:
 102              		.cfi_def_cfa_offset 0
 103              		.cfi_restore 4
 104              		.cfi_restore 14
 410:Drivers/STM32G4xx_HAL_Driver/Src/stm32g4xx_hal_dac.c ****   }
 105              		.loc 1 410 12 view .LVU23
 106 0020 0120     		movs	r0, #1
 107              	.LVL6:
 458:Drivers/STM32G4xx_HAL_Driver/Src/stm32g4xx_hal_dac.c **** 
 108              		.loc 1 458 1 view .LVU24
 109 0022 7047     		bx	lr
 110              		.cfi_endproc
 111              	.LFE132:
 113              		.section	.text.HAL_DAC_MspDeInit,"ax",%progbits
 114              		.align	1
 115              		.weak	HAL_DAC_MspDeInit
 116              		.syntax unified
 117              		.thumb
 118              		.thumb_func
 119              		.fpu fpv4-sp-d16
 121              	HAL_DAC_MspDeInit:
 122              	.LVL7:
 123              	.LFB135:
 520:Drivers/STM32G4xx_HAL_Driver/Src/stm32g4xx_hal_dac.c **** 
 521:Drivers/STM32G4xx_HAL_Driver/Src/stm32g4xx_hal_dac.c **** /**
 522:Drivers/STM32G4xx_HAL_Driver/Src/stm32g4xx_hal_dac.c ****   * @brief  DeInitialize the DAC MSP.
 523:Drivers/STM32G4xx_HAL_Driver/Src/stm32g4xx_hal_dac.c ****   * @param  hdac pointer to a DAC_HandleTypeDef structure that contains
 524:Drivers/STM32G4xx_HAL_Driver/Src/stm32g4xx_hal_dac.c ****   *         the configuration information for the specified DAC.
 525:Drivers/STM32G4xx_HAL_Driver/Src/stm32g4xx_hal_dac.c ****   * @retval None
 526:Drivers/STM32G4xx_HAL_Driver/Src/stm32g4xx_hal_dac.c ****   */
 527:Drivers/STM32G4xx_HAL_Driver/Src/stm32g4xx_hal_dac.c **** __weak void HAL_DAC_MspDeInit(DAC_HandleTypeDef *hdac)
 528:Drivers/STM32G4xx_HAL_Driver/Src/stm32g4xx_hal_dac.c **** {
 124              		.loc 1 528 1 is_stmt 1 view -0
 125              		.cfi_startproc
 126              		@ args = 0, pretend = 0, frame = 0
 127              		@ frame_needed = 0, uses_anonymous_args = 0
 128              		@ link register save eliminated.
 529:Drivers/STM32G4xx_HAL_Driver/Src/stm32g4xx_hal_dac.c ****   /* Prevent unused argument(s) compilation warning */
 530:Drivers/STM32G4xx_HAL_Driver/Src/stm32g4xx_hal_dac.c ****   UNUSED(hdac);
 129              		.loc 1 530 3 view .LVU26
 531:Drivers/STM32G4xx_HAL_Driver/Src/stm32g4xx_hal_dac.c **** 
 532:Drivers/STM32G4xx_HAL_Driver/Src/stm32g4xx_hal_dac.c ****   /* NOTE : This function should not be modified, when the callback is needed,
 533:Drivers/STM32G4xx_HAL_Driver/Src/stm32g4xx_hal_dac.c ****             the HAL_DAC_MspDeInit could be implemented in the user file
 534:Drivers/STM32G4xx_HAL_Driver/Src/stm32g4xx_hal_dac.c ****    */
 535:Drivers/STM32G4xx_HAL_Driver/Src/stm32g4xx_hal_dac.c **** }
 130              		.loc 1 535 1 is_stmt 0 view .LVU27
 131 0000 7047     		bx	lr
 132              		.cfi_endproc
ARM GAS  /tmp/cchITXCi.s 			page 13


 133              	.LFE135:
 135              		.section	.text.HAL_DAC_DeInit,"ax",%progbits
 136              		.align	1
 137              		.global	HAL_DAC_DeInit
 138              		.syntax unified
 139              		.thumb
 140              		.thumb_func
 141              		.fpu fpv4-sp-d16
 143              	HAL_DAC_DeInit:
 144              	.LVL8:
 145              	.LFB133:
 467:Drivers/STM32G4xx_HAL_Driver/Src/stm32g4xx_hal_dac.c ****   /* Check DAC handle */
 146              		.loc 1 467 1 is_stmt 1 view -0
 147              		.cfi_startproc
 148              		@ args = 0, pretend = 0, frame = 0
 149              		@ frame_needed = 0, uses_anonymous_args = 0
 469:Drivers/STM32G4xx_HAL_Driver/Src/stm32g4xx_hal_dac.c ****   {
 150              		.loc 1 469 3 view .LVU29
 469:Drivers/STM32G4xx_HAL_Driver/Src/stm32g4xx_hal_dac.c ****   {
 151              		.loc 1 469 6 is_stmt 0 view .LVU30
 152 0000 50B1     		cbz	r0, .L14
 467:Drivers/STM32G4xx_HAL_Driver/Src/stm32g4xx_hal_dac.c ****   /* Check DAC handle */
 153              		.loc 1 467 1 view .LVU31
 154 0002 10B5     		push	{r4, lr}
 155              	.LCFI2:
 156              		.cfi_def_cfa_offset 8
 157              		.cfi_offset 4, -8
 158              		.cfi_offset 14, -4
 159 0004 0446     		mov	r4, r0
 475:Drivers/STM32G4xx_HAL_Driver/Src/stm32g4xx_hal_dac.c **** 
 160              		.loc 1 475 3 is_stmt 1 view .LVU32
 478:Drivers/STM32G4xx_HAL_Driver/Src/stm32g4xx_hal_dac.c **** 
 161              		.loc 1 478 3 view .LVU33
 478:Drivers/STM32G4xx_HAL_Driver/Src/stm32g4xx_hal_dac.c **** 
 162              		.loc 1 478 15 is_stmt 0 view .LVU34
 163 0006 0223     		movs	r3, #2
 164 0008 0371     		strb	r3, [r0, #4]
 489:Drivers/STM32G4xx_HAL_Driver/Src/stm32g4xx_hal_dac.c **** #endif /* USE_HAL_DAC_REGISTER_CALLBACKS */
 165              		.loc 1 489 3 is_stmt 1 view .LVU35
 166 000a FFF7FEFF 		bl	HAL_DAC_MspDeInit
 167              	.LVL9:
 493:Drivers/STM32G4xx_HAL_Driver/Src/stm32g4xx_hal_dac.c **** 
 168              		.loc 1 493 3 view .LVU36
 493:Drivers/STM32G4xx_HAL_Driver/Src/stm32g4xx_hal_dac.c **** 
 169              		.loc 1 493 19 is_stmt 0 view .LVU37
 170 000e 0020     		movs	r0, #0
 171 0010 2061     		str	r0, [r4, #16]
 496:Drivers/STM32G4xx_HAL_Driver/Src/stm32g4xx_hal_dac.c **** 
 172              		.loc 1 496 3 is_stmt 1 view .LVU38
 496:Drivers/STM32G4xx_HAL_Driver/Src/stm32g4xx_hal_dac.c **** 
 173              		.loc 1 496 15 is_stmt 0 view .LVU39
 174 0012 2071     		strb	r0, [r4, #4]
 499:Drivers/STM32G4xx_HAL_Driver/Src/stm32g4xx_hal_dac.c **** 
 175              		.loc 1 499 3 is_stmt 1 view .LVU40
 499:Drivers/STM32G4xx_HAL_Driver/Src/stm32g4xx_hal_dac.c **** 
 176              		.loc 1 499 3 view .LVU41
 177 0014 6071     		strb	r0, [r4, #5]
ARM GAS  /tmp/cchITXCi.s 			page 14


 502:Drivers/STM32G4xx_HAL_Driver/Src/stm32g4xx_hal_dac.c **** }
 178              		.loc 1 502 3 view .LVU42
 503:Drivers/STM32G4xx_HAL_Driver/Src/stm32g4xx_hal_dac.c **** 
 179              		.loc 1 503 1 is_stmt 0 view .LVU43
 180 0016 10BD     		pop	{r4, pc}
 181              	.LVL10:
 182              	.L14:
 183              	.LCFI3:
 184              		.cfi_def_cfa_offset 0
 185              		.cfi_restore 4
 186              		.cfi_restore 14
 471:Drivers/STM32G4xx_HAL_Driver/Src/stm32g4xx_hal_dac.c ****   }
 187              		.loc 1 471 12 view .LVU44
 188 0018 0120     		movs	r0, #1
 189              	.LVL11:
 503:Drivers/STM32G4xx_HAL_Driver/Src/stm32g4xx_hal_dac.c **** 
 190              		.loc 1 503 1 view .LVU45
 191 001a 7047     		bx	lr
 192              		.cfi_endproc
 193              	.LFE133:
 195              		.section	.text.HAL_DAC_Start,"ax",%progbits
 196              		.align	1
 197              		.global	HAL_DAC_Start
 198              		.syntax unified
 199              		.thumb
 200              		.thumb_func
 201              		.fpu fpv4-sp-d16
 203              	HAL_DAC_Start:
 204              	.LVL12:
 205              	.LFB136:
 536:Drivers/STM32G4xx_HAL_Driver/Src/stm32g4xx_hal_dac.c **** 
 537:Drivers/STM32G4xx_HAL_Driver/Src/stm32g4xx_hal_dac.c **** /**
 538:Drivers/STM32G4xx_HAL_Driver/Src/stm32g4xx_hal_dac.c ****   * @}
 539:Drivers/STM32G4xx_HAL_Driver/Src/stm32g4xx_hal_dac.c ****   */
 540:Drivers/STM32G4xx_HAL_Driver/Src/stm32g4xx_hal_dac.c **** 
 541:Drivers/STM32G4xx_HAL_Driver/Src/stm32g4xx_hal_dac.c **** /** @defgroup DAC_Exported_Functions_Group2 IO operation functions
 542:Drivers/STM32G4xx_HAL_Driver/Src/stm32g4xx_hal_dac.c ****   *  @brief    IO operation functions
 543:Drivers/STM32G4xx_HAL_Driver/Src/stm32g4xx_hal_dac.c ****   *
 544:Drivers/STM32G4xx_HAL_Driver/Src/stm32g4xx_hal_dac.c **** @verbatim
 545:Drivers/STM32G4xx_HAL_Driver/Src/stm32g4xx_hal_dac.c ****   ==============================================================================
 546:Drivers/STM32G4xx_HAL_Driver/Src/stm32g4xx_hal_dac.c ****              ##### IO operation functions #####
 547:Drivers/STM32G4xx_HAL_Driver/Src/stm32g4xx_hal_dac.c ****   ==============================================================================
 548:Drivers/STM32G4xx_HAL_Driver/Src/stm32g4xx_hal_dac.c ****     [..]  This section provides functions allowing to:
 549:Drivers/STM32G4xx_HAL_Driver/Src/stm32g4xx_hal_dac.c ****       (+) Start conversion.
 550:Drivers/STM32G4xx_HAL_Driver/Src/stm32g4xx_hal_dac.c ****       (+) Stop conversion.
 551:Drivers/STM32G4xx_HAL_Driver/Src/stm32g4xx_hal_dac.c ****       (+) Start conversion and enable DMA transfer.
 552:Drivers/STM32G4xx_HAL_Driver/Src/stm32g4xx_hal_dac.c ****       (+) Stop conversion and disable DMA transfer.
 553:Drivers/STM32G4xx_HAL_Driver/Src/stm32g4xx_hal_dac.c ****       (+) Get result of conversion.
 554:Drivers/STM32G4xx_HAL_Driver/Src/stm32g4xx_hal_dac.c **** 
 555:Drivers/STM32G4xx_HAL_Driver/Src/stm32g4xx_hal_dac.c **** @endverbatim
 556:Drivers/STM32G4xx_HAL_Driver/Src/stm32g4xx_hal_dac.c ****   * @{
 557:Drivers/STM32G4xx_HAL_Driver/Src/stm32g4xx_hal_dac.c ****   */
 558:Drivers/STM32G4xx_HAL_Driver/Src/stm32g4xx_hal_dac.c **** 
 559:Drivers/STM32G4xx_HAL_Driver/Src/stm32g4xx_hal_dac.c **** /**
 560:Drivers/STM32G4xx_HAL_Driver/Src/stm32g4xx_hal_dac.c ****   * @brief  Enables DAC and starts conversion of channel.
 561:Drivers/STM32G4xx_HAL_Driver/Src/stm32g4xx_hal_dac.c ****   * @param  hdac pointer to a DAC_HandleTypeDef structure that contains
 562:Drivers/STM32G4xx_HAL_Driver/Src/stm32g4xx_hal_dac.c ****   *         the configuration information for the specified DAC.
ARM GAS  /tmp/cchITXCi.s 			page 15


 563:Drivers/STM32G4xx_HAL_Driver/Src/stm32g4xx_hal_dac.c ****   * @param  Channel The selected DAC channel.
 564:Drivers/STM32G4xx_HAL_Driver/Src/stm32g4xx_hal_dac.c ****   *          This parameter can be one of the following values:
 565:Drivers/STM32G4xx_HAL_Driver/Src/stm32g4xx_hal_dac.c ****   *            @arg DAC_CHANNEL_1: DAC Channel1 selected
 566:Drivers/STM32G4xx_HAL_Driver/Src/stm32g4xx_hal_dac.c ****   *            @arg DAC_CHANNEL_2: DAC Channel2 selected (1)
 567:Drivers/STM32G4xx_HAL_Driver/Src/stm32g4xx_hal_dac.c ****   *
 568:Drivers/STM32G4xx_HAL_Driver/Src/stm32g4xx_hal_dac.c ****   *         (1) On this STM32 series, parameter not available on all instances.
 569:Drivers/STM32G4xx_HAL_Driver/Src/stm32g4xx_hal_dac.c ****   *             Refer to device datasheet for channels availability.
 570:Drivers/STM32G4xx_HAL_Driver/Src/stm32g4xx_hal_dac.c ****   * @retval HAL status
 571:Drivers/STM32G4xx_HAL_Driver/Src/stm32g4xx_hal_dac.c ****   */
 572:Drivers/STM32G4xx_HAL_Driver/Src/stm32g4xx_hal_dac.c **** HAL_StatusTypeDef HAL_DAC_Start(DAC_HandleTypeDef *hdac, uint32_t Channel)
 573:Drivers/STM32G4xx_HAL_Driver/Src/stm32g4xx_hal_dac.c **** {
 206              		.loc 1 573 1 is_stmt 1 view -0
 207              		.cfi_startproc
 208              		@ args = 0, pretend = 0, frame = 0
 209              		@ frame_needed = 0, uses_anonymous_args = 0
 574:Drivers/STM32G4xx_HAL_Driver/Src/stm32g4xx_hal_dac.c ****   /* Check the parameters */
 575:Drivers/STM32G4xx_HAL_Driver/Src/stm32g4xx_hal_dac.c ****   assert_param(IS_DAC_CHANNEL(hdac->Instance, Channel));
 210              		.loc 1 575 3 view .LVU47
 576:Drivers/STM32G4xx_HAL_Driver/Src/stm32g4xx_hal_dac.c **** 
 577:Drivers/STM32G4xx_HAL_Driver/Src/stm32g4xx_hal_dac.c ****   /* Process locked */
 578:Drivers/STM32G4xx_HAL_Driver/Src/stm32g4xx_hal_dac.c ****   __HAL_LOCK(hdac);
 211              		.loc 1 578 3 view .LVU48
 212              		.loc 1 578 3 view .LVU49
 213 0000 4379     		ldrb	r3, [r0, #5]	@ zero_extendqisi2
 214 0002 012B     		cmp	r3, #1
 215 0004 2FD0     		beq	.L23
 573:Drivers/STM32G4xx_HAL_Driver/Src/stm32g4xx_hal_dac.c ****   /* Check the parameters */
 216              		.loc 1 573 1 is_stmt 0 discriminator 2 view .LVU50
 217 0006 70B5     		push	{r4, r5, r6, lr}
 218              	.LCFI4:
 219              		.cfi_def_cfa_offset 16
 220              		.cfi_offset 4, -16
 221              		.cfi_offset 5, -12
 222              		.cfi_offset 6, -8
 223              		.cfi_offset 14, -4
 224 0008 0D46     		mov	r5, r1
 225 000a 0446     		mov	r4, r0
 226              		.loc 1 578 3 is_stmt 1 discriminator 2 view .LVU51
 227 000c 0120     		movs	r0, #1
 228              	.LVL13:
 229              		.loc 1 578 3 is_stmt 0 discriminator 2 view .LVU52
 230 000e 6071     		strb	r0, [r4, #5]
 579:Drivers/STM32G4xx_HAL_Driver/Src/stm32g4xx_hal_dac.c **** 
 580:Drivers/STM32G4xx_HAL_Driver/Src/stm32g4xx_hal_dac.c ****   /* Change DAC state */
 581:Drivers/STM32G4xx_HAL_Driver/Src/stm32g4xx_hal_dac.c ****   hdac->State = HAL_DAC_STATE_BUSY;
 231              		.loc 1 581 3 is_stmt 1 discriminator 2 view .LVU53
 232              		.loc 1 581 15 is_stmt 0 discriminator 2 view .LVU54
 233 0010 0223     		movs	r3, #2
 234 0012 2371     		strb	r3, [r4, #4]
 582:Drivers/STM32G4xx_HAL_Driver/Src/stm32g4xx_hal_dac.c **** 
 583:Drivers/STM32G4xx_HAL_Driver/Src/stm32g4xx_hal_dac.c ****   /* Enable the Peripheral */
 584:Drivers/STM32G4xx_HAL_Driver/Src/stm32g4xx_hal_dac.c ****   __HAL_DAC_ENABLE(hdac, Channel);
 235              		.loc 1 584 3 is_stmt 1 discriminator 2 view .LVU55
 236 0014 2268     		ldr	r2, [r4]
 237 0016 1368     		ldr	r3, [r2]
 238 0018 01F01006 		and	r6, r1, #16
 239 001c 00FA06F1 		lsl	r1, r0, r6
ARM GAS  /tmp/cchITXCi.s 			page 16


 240              	.LVL14:
 241              		.loc 1 584 3 is_stmt 0 discriminator 2 view .LVU56
 242 0020 0B43     		orrs	r3, r3, r1
 243 0022 1360     		str	r3, [r2]
 585:Drivers/STM32G4xx_HAL_Driver/Src/stm32g4xx_hal_dac.c ****   /* Ensure minimum wait before using peripheral after enabling it */
 586:Drivers/STM32G4xx_HAL_Driver/Src/stm32g4xx_hal_dac.c ****   HAL_Delay(1);
 244              		.loc 1 586 3 is_stmt 1 discriminator 2 view .LVU57
 245 0024 FFF7FEFF 		bl	HAL_Delay
 246              	.LVL15:
 587:Drivers/STM32G4xx_HAL_Driver/Src/stm32g4xx_hal_dac.c **** 
 588:Drivers/STM32G4xx_HAL_Driver/Src/stm32g4xx_hal_dac.c ****   if (Channel == DAC_CHANNEL_1)
 247              		.loc 1 588 3 discriminator 2 view .LVU58
 248              		.loc 1 588 6 is_stmt 0 discriminator 2 view .LVU59
 249 0028 7DB9     		cbnz	r5, .L21
 589:Drivers/STM32G4xx_HAL_Driver/Src/stm32g4xx_hal_dac.c ****   {
 590:Drivers/STM32G4xx_HAL_Driver/Src/stm32g4xx_hal_dac.c ****     /* Check if software trigger enabled */
 591:Drivers/STM32G4xx_HAL_Driver/Src/stm32g4xx_hal_dac.c ****     if ((hdac->Instance->CR & (DAC_CR_TEN1 | DAC_CR_TSEL1)) == DAC_TRIGGER_SOFTWARE)
 250              		.loc 1 591 5 is_stmt 1 view .LVU60
 251              		.loc 1 591 14 is_stmt 0 view .LVU61
 252 002a 2268     		ldr	r2, [r4]
 253              		.loc 1 591 24 view .LVU62
 254 002c 1368     		ldr	r3, [r2]
 255              		.loc 1 591 29 view .LVU63
 256 002e 03F03E03 		and	r3, r3, #62
 257              		.loc 1 591 8 view .LVU64
 258 0032 022B     		cmp	r3, #2
 259 0034 04D0     		beq	.L28
 260              	.L22:
 592:Drivers/STM32G4xx_HAL_Driver/Src/stm32g4xx_hal_dac.c ****     {
 593:Drivers/STM32G4xx_HAL_Driver/Src/stm32g4xx_hal_dac.c ****       /* Enable the selected DAC software conversion */
 594:Drivers/STM32G4xx_HAL_Driver/Src/stm32g4xx_hal_dac.c ****       SET_BIT(hdac->Instance->SWTRIGR, DAC_SWTRIGR_SWTRIG1);
 595:Drivers/STM32G4xx_HAL_Driver/Src/stm32g4xx_hal_dac.c ****     }
 596:Drivers/STM32G4xx_HAL_Driver/Src/stm32g4xx_hal_dac.c ****   }
 597:Drivers/STM32G4xx_HAL_Driver/Src/stm32g4xx_hal_dac.c **** 
 598:Drivers/STM32G4xx_HAL_Driver/Src/stm32g4xx_hal_dac.c ****   else
 599:Drivers/STM32G4xx_HAL_Driver/Src/stm32g4xx_hal_dac.c ****   {
 600:Drivers/STM32G4xx_HAL_Driver/Src/stm32g4xx_hal_dac.c ****     /* Check if software trigger enabled */
 601:Drivers/STM32G4xx_HAL_Driver/Src/stm32g4xx_hal_dac.c ****     if ((hdac->Instance->CR & (DAC_CR_TEN2 | DAC_CR_TSEL2)) == (DAC_TRIGGER_SOFTWARE << (Channel & 
 602:Drivers/STM32G4xx_HAL_Driver/Src/stm32g4xx_hal_dac.c ****     {
 603:Drivers/STM32G4xx_HAL_Driver/Src/stm32g4xx_hal_dac.c ****       /* Enable the selected DAC software conversion*/
 604:Drivers/STM32G4xx_HAL_Driver/Src/stm32g4xx_hal_dac.c ****       SET_BIT(hdac->Instance->SWTRIGR, DAC_SWTRIGR_SWTRIG2);
 605:Drivers/STM32G4xx_HAL_Driver/Src/stm32g4xx_hal_dac.c ****     }
 606:Drivers/STM32G4xx_HAL_Driver/Src/stm32g4xx_hal_dac.c ****   }
 607:Drivers/STM32G4xx_HAL_Driver/Src/stm32g4xx_hal_dac.c **** 
 608:Drivers/STM32G4xx_HAL_Driver/Src/stm32g4xx_hal_dac.c **** 
 609:Drivers/STM32G4xx_HAL_Driver/Src/stm32g4xx_hal_dac.c ****   /* Change DAC state */
 610:Drivers/STM32G4xx_HAL_Driver/Src/stm32g4xx_hal_dac.c ****   hdac->State = HAL_DAC_STATE_READY;
 261              		.loc 1 610 3 is_stmt 1 view .LVU65
 262              		.loc 1 610 15 is_stmt 0 view .LVU66
 263 0036 0123     		movs	r3, #1
 264 0038 2371     		strb	r3, [r4, #4]
 611:Drivers/STM32G4xx_HAL_Driver/Src/stm32g4xx_hal_dac.c **** 
 612:Drivers/STM32G4xx_HAL_Driver/Src/stm32g4xx_hal_dac.c ****   /* Process unlocked */
 613:Drivers/STM32G4xx_HAL_Driver/Src/stm32g4xx_hal_dac.c ****   __HAL_UNLOCK(hdac);
 265              		.loc 1 613 3 is_stmt 1 view .LVU67
 266              		.loc 1 613 3 view .LVU68
 267 003a 0020     		movs	r0, #0
ARM GAS  /tmp/cchITXCi.s 			page 17


 268 003c 6071     		strb	r0, [r4, #5]
 614:Drivers/STM32G4xx_HAL_Driver/Src/stm32g4xx_hal_dac.c **** 
 615:Drivers/STM32G4xx_HAL_Driver/Src/stm32g4xx_hal_dac.c ****   /* Return function status */
 616:Drivers/STM32G4xx_HAL_Driver/Src/stm32g4xx_hal_dac.c ****   return HAL_OK;
 269              		.loc 1 616 3 view .LVU69
 617:Drivers/STM32G4xx_HAL_Driver/Src/stm32g4xx_hal_dac.c **** }
 270              		.loc 1 617 1 is_stmt 0 view .LVU70
 271 003e 70BD     		pop	{r4, r5, r6, pc}
 272              	.LVL16:
 273              	.L28:
 594:Drivers/STM32G4xx_HAL_Driver/Src/stm32g4xx_hal_dac.c ****     }
 274              		.loc 1 594 7 is_stmt 1 view .LVU71
 275 0040 5368     		ldr	r3, [r2, #4]
 276 0042 43F00103 		orr	r3, r3, #1
 277 0046 5360     		str	r3, [r2, #4]
 278 0048 F5E7     		b	.L22
 279              	.L21:
 601:Drivers/STM32G4xx_HAL_Driver/Src/stm32g4xx_hal_dac.c ****     {
 280              		.loc 1 601 5 view .LVU72
 601:Drivers/STM32G4xx_HAL_Driver/Src/stm32g4xx_hal_dac.c ****     {
 281              		.loc 1 601 14 is_stmt 0 view .LVU73
 282 004a 2168     		ldr	r1, [r4]
 601:Drivers/STM32G4xx_HAL_Driver/Src/stm32g4xx_hal_dac.c ****     {
 283              		.loc 1 601 24 view .LVU74
 284 004c 0A68     		ldr	r2, [r1]
 601:Drivers/STM32G4xx_HAL_Driver/Src/stm32g4xx_hal_dac.c ****     {
 285              		.loc 1 601 29 view .LVU75
 286 004e 02F47812 		and	r2, r2, #4063232
 601:Drivers/STM32G4xx_HAL_Driver/Src/stm32g4xx_hal_dac.c ****     {
 287              		.loc 1 601 86 view .LVU76
 288 0052 0223     		movs	r3, #2
 289 0054 03FA06F6 		lsl	r6, r3, r6
 601:Drivers/STM32G4xx_HAL_Driver/Src/stm32g4xx_hal_dac.c ****     {
 290              		.loc 1 601 8 view .LVU77
 291 0058 B242     		cmp	r2, r6
 292 005a ECD1     		bne	.L22
 604:Drivers/STM32G4xx_HAL_Driver/Src/stm32g4xx_hal_dac.c ****     }
 293              		.loc 1 604 7 is_stmt 1 view .LVU78
 294 005c 4B68     		ldr	r3, [r1, #4]
 295 005e 43F00203 		orr	r3, r3, #2
 296 0062 4B60     		str	r3, [r1, #4]
 297 0064 E7E7     		b	.L22
 298              	.LVL17:
 299              	.L23:
 300              	.LCFI5:
 301              		.cfi_def_cfa_offset 0
 302              		.cfi_restore 4
 303              		.cfi_restore 5
 304              		.cfi_restore 6
 305              		.cfi_restore 14
 578:Drivers/STM32G4xx_HAL_Driver/Src/stm32g4xx_hal_dac.c **** 
 306              		.loc 1 578 3 is_stmt 0 view .LVU79
 307 0066 0220     		movs	r0, #2
 308              	.LVL18:
 309              		.loc 1 617 1 view .LVU80
 310 0068 7047     		bx	lr
 311              		.cfi_endproc
ARM GAS  /tmp/cchITXCi.s 			page 18


 312              	.LFE136:
 314              		.section	.text.HAL_DAC_Stop,"ax",%progbits
 315              		.align	1
 316              		.global	HAL_DAC_Stop
 317              		.syntax unified
 318              		.thumb
 319              		.thumb_func
 320              		.fpu fpv4-sp-d16
 322              	HAL_DAC_Stop:
 323              	.LVL19:
 324              	.LFB137:
 618:Drivers/STM32G4xx_HAL_Driver/Src/stm32g4xx_hal_dac.c **** 
 619:Drivers/STM32G4xx_HAL_Driver/Src/stm32g4xx_hal_dac.c **** /**
 620:Drivers/STM32G4xx_HAL_Driver/Src/stm32g4xx_hal_dac.c ****   * @brief  Disables DAC and stop conversion of channel.
 621:Drivers/STM32G4xx_HAL_Driver/Src/stm32g4xx_hal_dac.c ****   * @param  hdac pointer to a DAC_HandleTypeDef structure that contains
 622:Drivers/STM32G4xx_HAL_Driver/Src/stm32g4xx_hal_dac.c ****   *         the configuration information for the specified DAC.
 623:Drivers/STM32G4xx_HAL_Driver/Src/stm32g4xx_hal_dac.c ****   * @param  Channel The selected DAC channel.
 624:Drivers/STM32G4xx_HAL_Driver/Src/stm32g4xx_hal_dac.c ****   *          This parameter can be one of the following values:
 625:Drivers/STM32G4xx_HAL_Driver/Src/stm32g4xx_hal_dac.c ****   *            @arg DAC_CHANNEL_1: DAC Channel1 selected
 626:Drivers/STM32G4xx_HAL_Driver/Src/stm32g4xx_hal_dac.c ****   *            @arg DAC_CHANNEL_2: DAC Channel2 selected (1)
 627:Drivers/STM32G4xx_HAL_Driver/Src/stm32g4xx_hal_dac.c ****   *
 628:Drivers/STM32G4xx_HAL_Driver/Src/stm32g4xx_hal_dac.c ****   *         (1) On this STM32 series, parameter not available on all instances.
 629:Drivers/STM32G4xx_HAL_Driver/Src/stm32g4xx_hal_dac.c ****   *             Refer to device datasheet for channels availability.
 630:Drivers/STM32G4xx_HAL_Driver/Src/stm32g4xx_hal_dac.c ****   * @retval HAL status
 631:Drivers/STM32G4xx_HAL_Driver/Src/stm32g4xx_hal_dac.c ****   */
 632:Drivers/STM32G4xx_HAL_Driver/Src/stm32g4xx_hal_dac.c **** HAL_StatusTypeDef HAL_DAC_Stop(DAC_HandleTypeDef *hdac, uint32_t Channel)
 633:Drivers/STM32G4xx_HAL_Driver/Src/stm32g4xx_hal_dac.c **** {
 325              		.loc 1 633 1 is_stmt 1 view -0
 326              		.cfi_startproc
 327              		@ args = 0, pretend = 0, frame = 0
 328              		@ frame_needed = 0, uses_anonymous_args = 0
 329              		.loc 1 633 1 is_stmt 0 view .LVU82
 330 0000 38B5     		push	{r3, r4, r5, lr}
 331              	.LCFI6:
 332              		.cfi_def_cfa_offset 16
 333              		.cfi_offset 3, -16
 334              		.cfi_offset 4, -12
 335              		.cfi_offset 5, -8
 336              		.cfi_offset 14, -4
 337 0002 0546     		mov	r5, r0
 634:Drivers/STM32G4xx_HAL_Driver/Src/stm32g4xx_hal_dac.c ****   /* Check the parameters */
 635:Drivers/STM32G4xx_HAL_Driver/Src/stm32g4xx_hal_dac.c ****   assert_param(IS_DAC_CHANNEL(hdac->Instance, Channel));
 338              		.loc 1 635 3 is_stmt 1 view .LVU83
 636:Drivers/STM32G4xx_HAL_Driver/Src/stm32g4xx_hal_dac.c **** 
 637:Drivers/STM32G4xx_HAL_Driver/Src/stm32g4xx_hal_dac.c ****   /* Disable the Peripheral */
 638:Drivers/STM32G4xx_HAL_Driver/Src/stm32g4xx_hal_dac.c ****   __HAL_DAC_DISABLE(hdac, Channel);
 339              		.loc 1 638 3 view .LVU84
 340 0004 0268     		ldr	r2, [r0]
 341 0006 1368     		ldr	r3, [r2]
 342 0008 01F01001 		and	r1, r1, #16
 343              	.LVL20:
 344              		.loc 1 638 3 is_stmt 0 view .LVU85
 345 000c 0124     		movs	r4, #1
 346 000e 04FA01F1 		lsl	r1, r4, r1
 347 0012 23EA0103 		bic	r3, r3, r1
 348 0016 1360     		str	r3, [r2]
 639:Drivers/STM32G4xx_HAL_Driver/Src/stm32g4xx_hal_dac.c ****   /* Ensure minimum wait before enabling peripheral after disabling it */
ARM GAS  /tmp/cchITXCi.s 			page 19


 640:Drivers/STM32G4xx_HAL_Driver/Src/stm32g4xx_hal_dac.c ****   HAL_Delay(1);
 349              		.loc 1 640 3 is_stmt 1 view .LVU86
 350 0018 2046     		mov	r0, r4
 351              	.LVL21:
 352              		.loc 1 640 3 is_stmt 0 view .LVU87
 353 001a FFF7FEFF 		bl	HAL_Delay
 354              	.LVL22:
 641:Drivers/STM32G4xx_HAL_Driver/Src/stm32g4xx_hal_dac.c **** 
 642:Drivers/STM32G4xx_HAL_Driver/Src/stm32g4xx_hal_dac.c ****   /* Change DAC state */
 643:Drivers/STM32G4xx_HAL_Driver/Src/stm32g4xx_hal_dac.c ****   hdac->State = HAL_DAC_STATE_READY;
 355              		.loc 1 643 3 is_stmt 1 view .LVU88
 356              		.loc 1 643 15 is_stmt 0 view .LVU89
 357 001e 2C71     		strb	r4, [r5, #4]
 644:Drivers/STM32G4xx_HAL_Driver/Src/stm32g4xx_hal_dac.c **** 
 645:Drivers/STM32G4xx_HAL_Driver/Src/stm32g4xx_hal_dac.c ****   /* Return function status */
 646:Drivers/STM32G4xx_HAL_Driver/Src/stm32g4xx_hal_dac.c ****   return HAL_OK;
 358              		.loc 1 646 3 is_stmt 1 view .LVU90
 647:Drivers/STM32G4xx_HAL_Driver/Src/stm32g4xx_hal_dac.c **** }
 359              		.loc 1 647 1 is_stmt 0 view .LVU91
 360 0020 0020     		movs	r0, #0
 361 0022 38BD     		pop	{r3, r4, r5, pc}
 362              		.loc 1 647 1 view .LVU92
 363              		.cfi_endproc
 364              	.LFE137:
 366              		.section	.text.HAL_DAC_Start_DMA,"ax",%progbits
 367              		.align	1
 368              		.global	HAL_DAC_Start_DMA
 369              		.syntax unified
 370              		.thumb
 371              		.thumb_func
 372              		.fpu fpv4-sp-d16
 374              	HAL_DAC_Start_DMA:
 375              	.LVL23:
 376              	.LFB138:
 648:Drivers/STM32G4xx_HAL_Driver/Src/stm32g4xx_hal_dac.c **** 
 649:Drivers/STM32G4xx_HAL_Driver/Src/stm32g4xx_hal_dac.c **** /**
 650:Drivers/STM32G4xx_HAL_Driver/Src/stm32g4xx_hal_dac.c ****   * @brief  Enables DAC and starts conversion of channel.
 651:Drivers/STM32G4xx_HAL_Driver/Src/stm32g4xx_hal_dac.c ****   * @param  hdac pointer to a DAC_HandleTypeDef structure that contains
 652:Drivers/STM32G4xx_HAL_Driver/Src/stm32g4xx_hal_dac.c ****   *         the configuration information for the specified DAC.
 653:Drivers/STM32G4xx_HAL_Driver/Src/stm32g4xx_hal_dac.c ****   * @param  Channel The selected DAC channel.
 654:Drivers/STM32G4xx_HAL_Driver/Src/stm32g4xx_hal_dac.c ****   *          This parameter can be one of the following values:
 655:Drivers/STM32G4xx_HAL_Driver/Src/stm32g4xx_hal_dac.c ****   *            @arg DAC_CHANNEL_1: DAC Channel1 selected
 656:Drivers/STM32G4xx_HAL_Driver/Src/stm32g4xx_hal_dac.c ****   *            @arg DAC_CHANNEL_2: DAC Channel2 selected (1)
 657:Drivers/STM32G4xx_HAL_Driver/Src/stm32g4xx_hal_dac.c ****   *
 658:Drivers/STM32G4xx_HAL_Driver/Src/stm32g4xx_hal_dac.c ****   *         (1) On this STM32 series, parameter not available on all instances.
 659:Drivers/STM32G4xx_HAL_Driver/Src/stm32g4xx_hal_dac.c ****   *             Refer to device datasheet for channels availability.
 660:Drivers/STM32G4xx_HAL_Driver/Src/stm32g4xx_hal_dac.c ****   * @param  pData The source Buffer address.
 661:Drivers/STM32G4xx_HAL_Driver/Src/stm32g4xx_hal_dac.c ****   * @param  Length The length of data to be transferred from memory to DAC peripheral
 662:Drivers/STM32G4xx_HAL_Driver/Src/stm32g4xx_hal_dac.c ****   * @param  Alignment Specifies the data alignment for DAC channel.
 663:Drivers/STM32G4xx_HAL_Driver/Src/stm32g4xx_hal_dac.c ****   *          This parameter can be one of the following values:
 664:Drivers/STM32G4xx_HAL_Driver/Src/stm32g4xx_hal_dac.c ****   *            @arg DAC_ALIGN_8B_R: 8bit right data alignment selected
 665:Drivers/STM32G4xx_HAL_Driver/Src/stm32g4xx_hal_dac.c ****   *            @arg DAC_ALIGN_12B_L: 12bit left data alignment selected
 666:Drivers/STM32G4xx_HAL_Driver/Src/stm32g4xx_hal_dac.c ****   *            @arg DAC_ALIGN_12B_R: 12bit right data alignment selected
 667:Drivers/STM32G4xx_HAL_Driver/Src/stm32g4xx_hal_dac.c ****   * @retval HAL status
 668:Drivers/STM32G4xx_HAL_Driver/Src/stm32g4xx_hal_dac.c ****   */
 669:Drivers/STM32G4xx_HAL_Driver/Src/stm32g4xx_hal_dac.c **** HAL_StatusTypeDef HAL_DAC_Start_DMA(DAC_HandleTypeDef *hdac, uint32_t Channel, uint32_t *pData, uin
 670:Drivers/STM32G4xx_HAL_Driver/Src/stm32g4xx_hal_dac.c ****                                     uint32_t Alignment)
ARM GAS  /tmp/cchITXCi.s 			page 20


 671:Drivers/STM32G4xx_HAL_Driver/Src/stm32g4xx_hal_dac.c **** {
 377              		.loc 1 671 1 is_stmt 1 view -0
 378              		.cfi_startproc
 379              		@ args = 4, pretend = 0, frame = 0
 380              		@ frame_needed = 0, uses_anonymous_args = 0
 381              		.loc 1 671 1 is_stmt 0 view .LVU94
 382 0000 F8B5     		push	{r3, r4, r5, r6, r7, lr}
 383              	.LCFI7:
 384              		.cfi_def_cfa_offset 24
 385              		.cfi_offset 3, -24
 386              		.cfi_offset 4, -20
 387              		.cfi_offset 5, -16
 388              		.cfi_offset 6, -12
 389              		.cfi_offset 7, -8
 390              		.cfi_offset 14, -4
 391 0002 069C     		ldr	r4, [sp, #24]
 672:Drivers/STM32G4xx_HAL_Driver/Src/stm32g4xx_hal_dac.c ****   HAL_StatusTypeDef status;
 392              		.loc 1 672 3 is_stmt 1 view .LVU95
 673:Drivers/STM32G4xx_HAL_Driver/Src/stm32g4xx_hal_dac.c ****   uint32_t tmpreg = 0U;
 393              		.loc 1 673 3 view .LVU96
 394              	.LVL24:
 674:Drivers/STM32G4xx_HAL_Driver/Src/stm32g4xx_hal_dac.c **** 
 675:Drivers/STM32G4xx_HAL_Driver/Src/stm32g4xx_hal_dac.c ****   /* Check the parameters */
 676:Drivers/STM32G4xx_HAL_Driver/Src/stm32g4xx_hal_dac.c ****   assert_param(IS_DAC_CHANNEL(hdac->Instance, Channel));
 395              		.loc 1 676 3 view .LVU97
 677:Drivers/STM32G4xx_HAL_Driver/Src/stm32g4xx_hal_dac.c ****   assert_param(IS_DAC_ALIGN(Alignment));
 396              		.loc 1 677 3 view .LVU98
 678:Drivers/STM32G4xx_HAL_Driver/Src/stm32g4xx_hal_dac.c **** 
 679:Drivers/STM32G4xx_HAL_Driver/Src/stm32g4xx_hal_dac.c ****   /* Process locked */
 680:Drivers/STM32G4xx_HAL_Driver/Src/stm32g4xx_hal_dac.c ****   __HAL_LOCK(hdac);
 397              		.loc 1 680 3 view .LVU99
 398              		.loc 1 680 3 view .LVU100
 399 0004 4579     		ldrb	r5, [r0, #5]	@ zero_extendqisi2
 400 0006 012D     		cmp	r5, #1
 401 0008 72D0     		beq	.L42
 402              		.loc 1 680 3 discriminator 2 view .LVU101
 403 000a 0125     		movs	r5, #1
 404 000c 4571     		strb	r5, [r0, #5]
 681:Drivers/STM32G4xx_HAL_Driver/Src/stm32g4xx_hal_dac.c **** 
 682:Drivers/STM32G4xx_HAL_Driver/Src/stm32g4xx_hal_dac.c ****   /* Change DAC state */
 683:Drivers/STM32G4xx_HAL_Driver/Src/stm32g4xx_hal_dac.c ****   hdac->State = HAL_DAC_STATE_BUSY;
 405              		.loc 1 683 3 discriminator 2 view .LVU102
 406              		.loc 1 683 15 is_stmt 0 discriminator 2 view .LVU103
 407 000e 0225     		movs	r5, #2
 408 0010 0571     		strb	r5, [r0, #4]
 684:Drivers/STM32G4xx_HAL_Driver/Src/stm32g4xx_hal_dac.c **** 
 685:Drivers/STM32G4xx_HAL_Driver/Src/stm32g4xx_hal_dac.c ****   if (Channel == DAC_CHANNEL_1)
 409              		.loc 1 685 3 is_stmt 1 discriminator 2 view .LVU104
 410              		.loc 1 685 6 is_stmt 0 discriminator 2 view .LVU105
 411 0012 0029     		cmp	r1, #0
 412 0014 36D1     		bne	.L33
 686:Drivers/STM32G4xx_HAL_Driver/Src/stm32g4xx_hal_dac.c ****   {
 687:Drivers/STM32G4xx_HAL_Driver/Src/stm32g4xx_hal_dac.c ****     /* Set the DMA transfer complete callback for channel1 */
 688:Drivers/STM32G4xx_HAL_Driver/Src/stm32g4xx_hal_dac.c ****     hdac->DMA_Handle1->XferCpltCallback = DAC_DMAConvCpltCh1;
 413              		.loc 1 688 5 is_stmt 1 view .LVU106
 414              		.loc 1 688 9 is_stmt 0 view .LVU107
 415 0016 8568     		ldr	r5, [r0, #8]
ARM GAS  /tmp/cchITXCi.s 			page 21


 416              		.loc 1 688 41 view .LVU108
 417 0018 364E     		ldr	r6, .L49
 418 001a EE62     		str	r6, [r5, #44]
 689:Drivers/STM32G4xx_HAL_Driver/Src/stm32g4xx_hal_dac.c **** 
 690:Drivers/STM32G4xx_HAL_Driver/Src/stm32g4xx_hal_dac.c ****     /* Set the DMA half transfer complete callback for channel1 */
 691:Drivers/STM32G4xx_HAL_Driver/Src/stm32g4xx_hal_dac.c ****     hdac->DMA_Handle1->XferHalfCpltCallback = DAC_DMAHalfConvCpltCh1;
 419              		.loc 1 691 5 is_stmt 1 view .LVU109
 420              		.loc 1 691 9 is_stmt 0 view .LVU110
 421 001c 8568     		ldr	r5, [r0, #8]
 422              		.loc 1 691 45 view .LVU111
 423 001e 364E     		ldr	r6, .L49+4
 424 0020 2E63     		str	r6, [r5, #48]
 692:Drivers/STM32G4xx_HAL_Driver/Src/stm32g4xx_hal_dac.c **** 
 693:Drivers/STM32G4xx_HAL_Driver/Src/stm32g4xx_hal_dac.c ****     /* Set the DMA error callback for channel1 */
 694:Drivers/STM32G4xx_HAL_Driver/Src/stm32g4xx_hal_dac.c ****     hdac->DMA_Handle1->XferErrorCallback = DAC_DMAErrorCh1;
 425              		.loc 1 694 5 is_stmt 1 view .LVU112
 426              		.loc 1 694 9 is_stmt 0 view .LVU113
 427 0022 8568     		ldr	r5, [r0, #8]
 428              		.loc 1 694 42 view .LVU114
 429 0024 354E     		ldr	r6, .L49+8
 430 0026 6E63     		str	r6, [r5, #52]
 695:Drivers/STM32G4xx_HAL_Driver/Src/stm32g4xx_hal_dac.c **** 
 696:Drivers/STM32G4xx_HAL_Driver/Src/stm32g4xx_hal_dac.c ****     /* Enable the selected DAC channel1 DMA request */
 697:Drivers/STM32G4xx_HAL_Driver/Src/stm32g4xx_hal_dac.c ****     SET_BIT(hdac->Instance->CR, DAC_CR_DMAEN1);
 431              		.loc 1 697 5 is_stmt 1 view .LVU115
 432 0028 0668     		ldr	r6, [r0]
 433 002a 3568     		ldr	r5, [r6]
 434 002c 45F48055 		orr	r5, r5, #4096
 435 0030 3560     		str	r5, [r6]
 698:Drivers/STM32G4xx_HAL_Driver/Src/stm32g4xx_hal_dac.c **** 
 699:Drivers/STM32G4xx_HAL_Driver/Src/stm32g4xx_hal_dac.c ****     /* Case of use of channel 1 */
 700:Drivers/STM32G4xx_HAL_Driver/Src/stm32g4xx_hal_dac.c ****     switch (Alignment)
 436              		.loc 1 700 5 view .LVU116
 437 0032 042C     		cmp	r4, #4
 438 0034 20D0     		beq	.L34
 439 0036 082C     		cmp	r4, #8
 440 0038 21D0     		beq	.L35
 441 003a D4B1     		cbz	r4, .L46
 673:Drivers/STM32G4xx_HAL_Driver/Src/stm32g4xx_hal_dac.c **** 
 442              		.loc 1 673 12 is_stmt 0 view .LVU117
 443 003c 0C46     		mov	r4, r1
 444              	.LVL25:
 445              	.L36:
 673:Drivers/STM32G4xx_HAL_Driver/Src/stm32g4xx_hal_dac.c **** 
 446              		.loc 1 673 12 view .LVU118
 447 003e 1546     		mov	r5, r2
 448 0040 0F46     		mov	r7, r1
 449 0042 0646     		mov	r6, r0
 450              	.LVL26:
 701:Drivers/STM32G4xx_HAL_Driver/Src/stm32g4xx_hal_dac.c ****     {
 702:Drivers/STM32G4xx_HAL_Driver/Src/stm32g4xx_hal_dac.c ****       case DAC_ALIGN_12B_R:
 703:Drivers/STM32G4xx_HAL_Driver/Src/stm32g4xx_hal_dac.c ****         /* Get DHR12R1 address */
 704:Drivers/STM32G4xx_HAL_Driver/Src/stm32g4xx_hal_dac.c ****         tmpreg = (uint32_t)&hdac->Instance->DHR12R1;
 705:Drivers/STM32G4xx_HAL_Driver/Src/stm32g4xx_hal_dac.c ****         break;
 706:Drivers/STM32G4xx_HAL_Driver/Src/stm32g4xx_hal_dac.c ****       case DAC_ALIGN_12B_L:
 707:Drivers/STM32G4xx_HAL_Driver/Src/stm32g4xx_hal_dac.c ****         /* Get DHR12L1 address */
 708:Drivers/STM32G4xx_HAL_Driver/Src/stm32g4xx_hal_dac.c ****         tmpreg = (uint32_t)&hdac->Instance->DHR12L1;
ARM GAS  /tmp/cchITXCi.s 			page 22


 709:Drivers/STM32G4xx_HAL_Driver/Src/stm32g4xx_hal_dac.c ****         break;
 710:Drivers/STM32G4xx_HAL_Driver/Src/stm32g4xx_hal_dac.c ****       case DAC_ALIGN_8B_R:
 711:Drivers/STM32G4xx_HAL_Driver/Src/stm32g4xx_hal_dac.c ****         /* Get DHR8R1 address */
 712:Drivers/STM32G4xx_HAL_Driver/Src/stm32g4xx_hal_dac.c ****         tmpreg = (uint32_t)&hdac->Instance->DHR8R1;
 713:Drivers/STM32G4xx_HAL_Driver/Src/stm32g4xx_hal_dac.c ****         break;
 714:Drivers/STM32G4xx_HAL_Driver/Src/stm32g4xx_hal_dac.c ****       default:
 715:Drivers/STM32G4xx_HAL_Driver/Src/stm32g4xx_hal_dac.c ****         break;
 716:Drivers/STM32G4xx_HAL_Driver/Src/stm32g4xx_hal_dac.c ****     }
 717:Drivers/STM32G4xx_HAL_Driver/Src/stm32g4xx_hal_dac.c ****   }
 718:Drivers/STM32G4xx_HAL_Driver/Src/stm32g4xx_hal_dac.c **** 
 719:Drivers/STM32G4xx_HAL_Driver/Src/stm32g4xx_hal_dac.c ****   else
 720:Drivers/STM32G4xx_HAL_Driver/Src/stm32g4xx_hal_dac.c ****   {
 721:Drivers/STM32G4xx_HAL_Driver/Src/stm32g4xx_hal_dac.c ****     /* Set the DMA transfer complete callback for channel2 */
 722:Drivers/STM32G4xx_HAL_Driver/Src/stm32g4xx_hal_dac.c ****     hdac->DMA_Handle2->XferCpltCallback = DAC_DMAConvCpltCh2;
 723:Drivers/STM32G4xx_HAL_Driver/Src/stm32g4xx_hal_dac.c **** 
 724:Drivers/STM32G4xx_HAL_Driver/Src/stm32g4xx_hal_dac.c ****     /* Set the DMA half transfer complete callback for channel2 */
 725:Drivers/STM32G4xx_HAL_Driver/Src/stm32g4xx_hal_dac.c ****     hdac->DMA_Handle2->XferHalfCpltCallback = DAC_DMAHalfConvCpltCh2;
 726:Drivers/STM32G4xx_HAL_Driver/Src/stm32g4xx_hal_dac.c **** 
 727:Drivers/STM32G4xx_HAL_Driver/Src/stm32g4xx_hal_dac.c ****     /* Set the DMA error callback for channel2 */
 728:Drivers/STM32G4xx_HAL_Driver/Src/stm32g4xx_hal_dac.c ****     hdac->DMA_Handle2->XferErrorCallback = DAC_DMAErrorCh2;
 729:Drivers/STM32G4xx_HAL_Driver/Src/stm32g4xx_hal_dac.c **** 
 730:Drivers/STM32G4xx_HAL_Driver/Src/stm32g4xx_hal_dac.c ****     /* Enable the selected DAC channel2 DMA request */
 731:Drivers/STM32G4xx_HAL_Driver/Src/stm32g4xx_hal_dac.c ****     SET_BIT(hdac->Instance->CR, DAC_CR_DMAEN2);
 732:Drivers/STM32G4xx_HAL_Driver/Src/stm32g4xx_hal_dac.c **** 
 733:Drivers/STM32G4xx_HAL_Driver/Src/stm32g4xx_hal_dac.c ****     /* Case of use of channel 2 */
 734:Drivers/STM32G4xx_HAL_Driver/Src/stm32g4xx_hal_dac.c ****     switch (Alignment)
 735:Drivers/STM32G4xx_HAL_Driver/Src/stm32g4xx_hal_dac.c ****     {
 736:Drivers/STM32G4xx_HAL_Driver/Src/stm32g4xx_hal_dac.c ****       case DAC_ALIGN_12B_R:
 737:Drivers/STM32G4xx_HAL_Driver/Src/stm32g4xx_hal_dac.c ****         /* Get DHR12R2 address */
 738:Drivers/STM32G4xx_HAL_Driver/Src/stm32g4xx_hal_dac.c ****         tmpreg = (uint32_t)&hdac->Instance->DHR12R2;
 739:Drivers/STM32G4xx_HAL_Driver/Src/stm32g4xx_hal_dac.c ****         break;
 740:Drivers/STM32G4xx_HAL_Driver/Src/stm32g4xx_hal_dac.c ****       case DAC_ALIGN_12B_L:
 741:Drivers/STM32G4xx_HAL_Driver/Src/stm32g4xx_hal_dac.c ****         /* Get DHR12L2 address */
 742:Drivers/STM32G4xx_HAL_Driver/Src/stm32g4xx_hal_dac.c ****         tmpreg = (uint32_t)&hdac->Instance->DHR12L2;
 743:Drivers/STM32G4xx_HAL_Driver/Src/stm32g4xx_hal_dac.c ****         break;
 744:Drivers/STM32G4xx_HAL_Driver/Src/stm32g4xx_hal_dac.c ****       case DAC_ALIGN_8B_R:
 745:Drivers/STM32G4xx_HAL_Driver/Src/stm32g4xx_hal_dac.c ****         /* Get DHR8R2 address */
 746:Drivers/STM32G4xx_HAL_Driver/Src/stm32g4xx_hal_dac.c ****         tmpreg = (uint32_t)&hdac->Instance->DHR8R2;
 747:Drivers/STM32G4xx_HAL_Driver/Src/stm32g4xx_hal_dac.c ****         break;
 748:Drivers/STM32G4xx_HAL_Driver/Src/stm32g4xx_hal_dac.c ****       default:
 749:Drivers/STM32G4xx_HAL_Driver/Src/stm32g4xx_hal_dac.c ****         break;
 750:Drivers/STM32G4xx_HAL_Driver/Src/stm32g4xx_hal_dac.c ****     }
 751:Drivers/STM32G4xx_HAL_Driver/Src/stm32g4xx_hal_dac.c ****   }
 752:Drivers/STM32G4xx_HAL_Driver/Src/stm32g4xx_hal_dac.c **** 
 753:Drivers/STM32G4xx_HAL_Driver/Src/stm32g4xx_hal_dac.c **** 
 754:Drivers/STM32G4xx_HAL_Driver/Src/stm32g4xx_hal_dac.c ****   /* Enable the DMA channel */
 755:Drivers/STM32G4xx_HAL_Driver/Src/stm32g4xx_hal_dac.c ****   if (Channel == DAC_CHANNEL_1)
 451              		.loc 1 755 3 is_stmt 1 view .LVU119
 452              		.loc 1 755 6 is_stmt 0 view .LVU120
 453 0044 0029     		cmp	r1, #0
 454 0046 3BD1     		bne	.L39
 756:Drivers/STM32G4xx_HAL_Driver/Src/stm32g4xx_hal_dac.c ****   {
 757:Drivers/STM32G4xx_HAL_Driver/Src/stm32g4xx_hal_dac.c ****     /* Enable the DAC DMA underrun interrupt */
 758:Drivers/STM32G4xx_HAL_Driver/Src/stm32g4xx_hal_dac.c ****     __HAL_DAC_ENABLE_IT(hdac, DAC_IT_DMAUDR1);
 455              		.loc 1 758 5 is_stmt 1 view .LVU121
 456 0048 0168     		ldr	r1, [r0]
 457              	.LVL27:
ARM GAS  /tmp/cchITXCi.s 			page 23


 458              		.loc 1 758 5 is_stmt 0 view .LVU122
 459 004a 0A68     		ldr	r2, [r1]
 460              	.LVL28:
 461              		.loc 1 758 5 view .LVU123
 462 004c 42F40052 		orr	r2, r2, #8192
 463 0050 0A60     		str	r2, [r1]
 759:Drivers/STM32G4xx_HAL_Driver/Src/stm32g4xx_hal_dac.c **** 
 760:Drivers/STM32G4xx_HAL_Driver/Src/stm32g4xx_hal_dac.c ****     /* Enable the DMA channel */
 761:Drivers/STM32G4xx_HAL_Driver/Src/stm32g4xx_hal_dac.c ****     status = HAL_DMA_Start_IT(hdac->DMA_Handle1, (uint32_t)pData, tmpreg, Length);
 464              		.loc 1 761 5 is_stmt 1 view .LVU124
 465              		.loc 1 761 14 is_stmt 0 view .LVU125
 466 0052 2246     		mov	r2, r4
 467 0054 2946     		mov	r1, r5
 468 0056 8068     		ldr	r0, [r0, #8]
 469              	.LVL29:
 470              		.loc 1 761 14 view .LVU126
 471 0058 FFF7FEFF 		bl	HAL_DMA_Start_IT
 472              	.LVL30:
 473              		.loc 1 761 14 view .LVU127
 474 005c 0446     		mov	r4, r0
 475              	.LVL31:
 476              	.L40:
 762:Drivers/STM32G4xx_HAL_Driver/Src/stm32g4xx_hal_dac.c ****   }
 763:Drivers/STM32G4xx_HAL_Driver/Src/stm32g4xx_hal_dac.c **** 
 764:Drivers/STM32G4xx_HAL_Driver/Src/stm32g4xx_hal_dac.c ****   else
 765:Drivers/STM32G4xx_HAL_Driver/Src/stm32g4xx_hal_dac.c ****   {
 766:Drivers/STM32G4xx_HAL_Driver/Src/stm32g4xx_hal_dac.c ****     /* Enable the DAC DMA underrun interrupt */
 767:Drivers/STM32G4xx_HAL_Driver/Src/stm32g4xx_hal_dac.c ****     __HAL_DAC_ENABLE_IT(hdac, DAC_IT_DMAUDR2);
 768:Drivers/STM32G4xx_HAL_Driver/Src/stm32g4xx_hal_dac.c **** 
 769:Drivers/STM32G4xx_HAL_Driver/Src/stm32g4xx_hal_dac.c ****     /* Enable the DMA channel */
 770:Drivers/STM32G4xx_HAL_Driver/Src/stm32g4xx_hal_dac.c ****     status = HAL_DMA_Start_IT(hdac->DMA_Handle2, (uint32_t)pData, tmpreg, Length);
 771:Drivers/STM32G4xx_HAL_Driver/Src/stm32g4xx_hal_dac.c ****   }
 772:Drivers/STM32G4xx_HAL_Driver/Src/stm32g4xx_hal_dac.c **** 
 773:Drivers/STM32G4xx_HAL_Driver/Src/stm32g4xx_hal_dac.c **** 
 774:Drivers/STM32G4xx_HAL_Driver/Src/stm32g4xx_hal_dac.c ****   /* Process Unlocked */
 775:Drivers/STM32G4xx_HAL_Driver/Src/stm32g4xx_hal_dac.c ****   __HAL_UNLOCK(hdac);
 477              		.loc 1 775 3 is_stmt 1 view .LVU128
 478              		.loc 1 775 3 view .LVU129
 479 005e 0023     		movs	r3, #0
 480 0060 7371     		strb	r3, [r6, #5]
 776:Drivers/STM32G4xx_HAL_Driver/Src/stm32g4xx_hal_dac.c **** 
 777:Drivers/STM32G4xx_HAL_Driver/Src/stm32g4xx_hal_dac.c ****   if (status == HAL_OK)
 481              		.loc 1 777 3 view .LVU130
 482              		.loc 1 777 6 is_stmt 0 view .LVU131
 483 0062 002C     		cmp	r4, #0
 484 0064 38D0     		beq	.L47
 778:Drivers/STM32G4xx_HAL_Driver/Src/stm32g4xx_hal_dac.c ****   {
 779:Drivers/STM32G4xx_HAL_Driver/Src/stm32g4xx_hal_dac.c ****     /* Enable the Peripheral */
 780:Drivers/STM32G4xx_HAL_Driver/Src/stm32g4xx_hal_dac.c ****     __HAL_DAC_ENABLE(hdac, Channel);
 781:Drivers/STM32G4xx_HAL_Driver/Src/stm32g4xx_hal_dac.c ****     /* Ensure minimum wait before using peripheral after enabling it */
 782:Drivers/STM32G4xx_HAL_Driver/Src/stm32g4xx_hal_dac.c ****     HAL_Delay(1);
 783:Drivers/STM32G4xx_HAL_Driver/Src/stm32g4xx_hal_dac.c ****   }
 784:Drivers/STM32G4xx_HAL_Driver/Src/stm32g4xx_hal_dac.c ****   else
 785:Drivers/STM32G4xx_HAL_Driver/Src/stm32g4xx_hal_dac.c ****   {
 786:Drivers/STM32G4xx_HAL_Driver/Src/stm32g4xx_hal_dac.c ****     hdac->ErrorCode |= HAL_DAC_ERROR_DMA;
 485              		.loc 1 786 5 is_stmt 1 view .LVU132
 486              		.loc 1 786 21 is_stmt 0 view .LVU133
ARM GAS  /tmp/cchITXCi.s 			page 24


 487 0066 3369     		ldr	r3, [r6, #16]
 488 0068 43F00403 		orr	r3, r3, #4
 489 006c 3361     		str	r3, [r6, #16]
 490              	.LVL32:
 491              	.L32:
 787:Drivers/STM32G4xx_HAL_Driver/Src/stm32g4xx_hal_dac.c ****   }
 788:Drivers/STM32G4xx_HAL_Driver/Src/stm32g4xx_hal_dac.c **** 
 789:Drivers/STM32G4xx_HAL_Driver/Src/stm32g4xx_hal_dac.c ****   /* Return function status */
 790:Drivers/STM32G4xx_HAL_Driver/Src/stm32g4xx_hal_dac.c ****   return status;
 791:Drivers/STM32G4xx_HAL_Driver/Src/stm32g4xx_hal_dac.c **** }
 492              		.loc 1 791 1 view .LVU134
 493 006e 2046     		mov	r0, r4
 494 0070 F8BD     		pop	{r3, r4, r5, r6, r7, pc}
 495              	.LVL33:
 496              	.L46:
 704:Drivers/STM32G4xx_HAL_Driver/Src/stm32g4xx_hal_dac.c ****         break;
 497              		.loc 1 704 9 is_stmt 1 view .LVU135
 704:Drivers/STM32G4xx_HAL_Driver/Src/stm32g4xx_hal_dac.c ****         break;
 498              		.loc 1 704 33 is_stmt 0 view .LVU136
 499 0072 0468     		ldr	r4, [r0]
 704:Drivers/STM32G4xx_HAL_Driver/Src/stm32g4xx_hal_dac.c ****         break;
 500              		.loc 1 704 28 view .LVU137
 501 0074 0834     		adds	r4, r4, #8
 502              	.LVL34:
 705:Drivers/STM32G4xx_HAL_Driver/Src/stm32g4xx_hal_dac.c ****       case DAC_ALIGN_12B_L:
 503              		.loc 1 705 9 is_stmt 1 view .LVU138
 504 0076 E2E7     		b	.L36
 505              	.LVL35:
 506              	.L34:
 708:Drivers/STM32G4xx_HAL_Driver/Src/stm32g4xx_hal_dac.c ****         break;
 507              		.loc 1 708 9 view .LVU139
 708:Drivers/STM32G4xx_HAL_Driver/Src/stm32g4xx_hal_dac.c ****         break;
 508              		.loc 1 708 33 is_stmt 0 view .LVU140
 509 0078 0468     		ldr	r4, [r0]
 708:Drivers/STM32G4xx_HAL_Driver/Src/stm32g4xx_hal_dac.c ****         break;
 510              		.loc 1 708 28 view .LVU141
 511 007a 0C34     		adds	r4, r4, #12
 512              	.LVL36:
 709:Drivers/STM32G4xx_HAL_Driver/Src/stm32g4xx_hal_dac.c ****       case DAC_ALIGN_8B_R:
 513              		.loc 1 709 9 is_stmt 1 view .LVU142
 514 007c DFE7     		b	.L36
 515              	.LVL37:
 516              	.L35:
 712:Drivers/STM32G4xx_HAL_Driver/Src/stm32g4xx_hal_dac.c ****         break;
 517              		.loc 1 712 9 view .LVU143
 712:Drivers/STM32G4xx_HAL_Driver/Src/stm32g4xx_hal_dac.c ****         break;
 518              		.loc 1 712 33 is_stmt 0 view .LVU144
 519 007e 0468     		ldr	r4, [r0]
 712:Drivers/STM32G4xx_HAL_Driver/Src/stm32g4xx_hal_dac.c ****         break;
 520              		.loc 1 712 28 view .LVU145
 521 0080 1034     		adds	r4, r4, #16
 522              	.LVL38:
 713:Drivers/STM32G4xx_HAL_Driver/Src/stm32g4xx_hal_dac.c ****       default:
 523              		.loc 1 713 9 is_stmt 1 view .LVU146
 524 0082 DCE7     		b	.L36
 525              	.LVL39:
 526              	.L33:
ARM GAS  /tmp/cchITXCi.s 			page 25


 722:Drivers/STM32G4xx_HAL_Driver/Src/stm32g4xx_hal_dac.c **** 
 527              		.loc 1 722 5 view .LVU147
 722:Drivers/STM32G4xx_HAL_Driver/Src/stm32g4xx_hal_dac.c **** 
 528              		.loc 1 722 9 is_stmt 0 view .LVU148
 529 0084 C568     		ldr	r5, [r0, #12]
 722:Drivers/STM32G4xx_HAL_Driver/Src/stm32g4xx_hal_dac.c **** 
 530              		.loc 1 722 41 view .LVU149
 531 0086 1E4E     		ldr	r6, .L49+12
 532 0088 EE62     		str	r6, [r5, #44]
 725:Drivers/STM32G4xx_HAL_Driver/Src/stm32g4xx_hal_dac.c **** 
 533              		.loc 1 725 5 is_stmt 1 view .LVU150
 725:Drivers/STM32G4xx_HAL_Driver/Src/stm32g4xx_hal_dac.c **** 
 534              		.loc 1 725 9 is_stmt 0 view .LVU151
 535 008a C568     		ldr	r5, [r0, #12]
 725:Drivers/STM32G4xx_HAL_Driver/Src/stm32g4xx_hal_dac.c **** 
 536              		.loc 1 725 45 view .LVU152
 537 008c 1D4E     		ldr	r6, .L49+16
 538 008e 2E63     		str	r6, [r5, #48]
 728:Drivers/STM32G4xx_HAL_Driver/Src/stm32g4xx_hal_dac.c **** 
 539              		.loc 1 728 5 is_stmt 1 view .LVU153
 728:Drivers/STM32G4xx_HAL_Driver/Src/stm32g4xx_hal_dac.c **** 
 540              		.loc 1 728 9 is_stmt 0 view .LVU154
 541 0090 C568     		ldr	r5, [r0, #12]
 728:Drivers/STM32G4xx_HAL_Driver/Src/stm32g4xx_hal_dac.c **** 
 542              		.loc 1 728 42 view .LVU155
 543 0092 1D4E     		ldr	r6, .L49+20
 544 0094 6E63     		str	r6, [r5, #52]
 731:Drivers/STM32G4xx_HAL_Driver/Src/stm32g4xx_hal_dac.c **** 
 545              		.loc 1 731 5 is_stmt 1 view .LVU156
 546 0096 0668     		ldr	r6, [r0]
 547 0098 3568     		ldr	r5, [r6]
 548 009a 45F08055 		orr	r5, r5, #268435456
 549 009e 3560     		str	r5, [r6]
 734:Drivers/STM32G4xx_HAL_Driver/Src/stm32g4xx_hal_dac.c ****     {
 550              		.loc 1 734 5 view .LVU157
 551 00a0 042C     		cmp	r4, #4
 552 00a2 07D0     		beq	.L37
 553 00a4 082C     		cmp	r4, #8
 554 00a6 08D0     		beq	.L38
 555 00a8 0CB1     		cbz	r4, .L48
 673:Drivers/STM32G4xx_HAL_Driver/Src/stm32g4xx_hal_dac.c **** 
 556              		.loc 1 673 12 is_stmt 0 view .LVU158
 557 00aa 0024     		movs	r4, #0
 558 00ac C7E7     		b	.L36
 559              	.L48:
 738:Drivers/STM32G4xx_HAL_Driver/Src/stm32g4xx_hal_dac.c ****         break;
 560              		.loc 1 738 9 is_stmt 1 view .LVU159
 738:Drivers/STM32G4xx_HAL_Driver/Src/stm32g4xx_hal_dac.c ****         break;
 561              		.loc 1 738 33 is_stmt 0 view .LVU160
 562 00ae 0468     		ldr	r4, [r0]
 738:Drivers/STM32G4xx_HAL_Driver/Src/stm32g4xx_hal_dac.c ****         break;
 563              		.loc 1 738 28 view .LVU161
 564 00b0 1434     		adds	r4, r4, #20
 565              	.LVL40:
 739:Drivers/STM32G4xx_HAL_Driver/Src/stm32g4xx_hal_dac.c ****       case DAC_ALIGN_12B_L:
 566              		.loc 1 739 9 is_stmt 1 view .LVU162
 567 00b2 C4E7     		b	.L36
ARM GAS  /tmp/cchITXCi.s 			page 26


 568              	.LVL41:
 569              	.L37:
 742:Drivers/STM32G4xx_HAL_Driver/Src/stm32g4xx_hal_dac.c ****         break;
 570              		.loc 1 742 9 view .LVU163
 742:Drivers/STM32G4xx_HAL_Driver/Src/stm32g4xx_hal_dac.c ****         break;
 571              		.loc 1 742 33 is_stmt 0 view .LVU164
 572 00b4 0468     		ldr	r4, [r0]
 742:Drivers/STM32G4xx_HAL_Driver/Src/stm32g4xx_hal_dac.c ****         break;
 573              		.loc 1 742 28 view .LVU165
 574 00b6 1834     		adds	r4, r4, #24
 575              	.LVL42:
 743:Drivers/STM32G4xx_HAL_Driver/Src/stm32g4xx_hal_dac.c ****       case DAC_ALIGN_8B_R:
 576              		.loc 1 743 9 is_stmt 1 view .LVU166
 577 00b8 C1E7     		b	.L36
 578              	.LVL43:
 579              	.L38:
 746:Drivers/STM32G4xx_HAL_Driver/Src/stm32g4xx_hal_dac.c ****         break;
 580              		.loc 1 746 9 view .LVU167
 746:Drivers/STM32G4xx_HAL_Driver/Src/stm32g4xx_hal_dac.c ****         break;
 581              		.loc 1 746 33 is_stmt 0 view .LVU168
 582 00ba 0468     		ldr	r4, [r0]
 746:Drivers/STM32G4xx_HAL_Driver/Src/stm32g4xx_hal_dac.c ****         break;
 583              		.loc 1 746 28 view .LVU169
 584 00bc 1C34     		adds	r4, r4, #28
 585              	.LVL44:
 747:Drivers/STM32G4xx_HAL_Driver/Src/stm32g4xx_hal_dac.c ****       default:
 586              		.loc 1 747 9 is_stmt 1 view .LVU170
 587 00be BEE7     		b	.L36
 588              	.L39:
 767:Drivers/STM32G4xx_HAL_Driver/Src/stm32g4xx_hal_dac.c **** 
 589              		.loc 1 767 5 view .LVU171
 590 00c0 0168     		ldr	r1, [r0]
 591              	.LVL45:
 767:Drivers/STM32G4xx_HAL_Driver/Src/stm32g4xx_hal_dac.c **** 
 592              		.loc 1 767 5 is_stmt 0 view .LVU172
 593 00c2 0A68     		ldr	r2, [r1]
 594              	.LVL46:
 767:Drivers/STM32G4xx_HAL_Driver/Src/stm32g4xx_hal_dac.c **** 
 595              		.loc 1 767 5 view .LVU173
 596 00c4 42F00052 		orr	r2, r2, #536870912
 597 00c8 0A60     		str	r2, [r1]
 770:Drivers/STM32G4xx_HAL_Driver/Src/stm32g4xx_hal_dac.c ****   }
 598              		.loc 1 770 5 is_stmt 1 view .LVU174
 770:Drivers/STM32G4xx_HAL_Driver/Src/stm32g4xx_hal_dac.c ****   }
 599              		.loc 1 770 14 is_stmt 0 view .LVU175
 600 00ca 2246     		mov	r2, r4
 601 00cc 2946     		mov	r1, r5
 602 00ce C068     		ldr	r0, [r0, #12]
 603              	.LVL47:
 770:Drivers/STM32G4xx_HAL_Driver/Src/stm32g4xx_hal_dac.c ****   }
 604              		.loc 1 770 14 view .LVU176
 605 00d0 FFF7FEFF 		bl	HAL_DMA_Start_IT
 606              	.LVL48:
 770:Drivers/STM32G4xx_HAL_Driver/Src/stm32g4xx_hal_dac.c ****   }
 607              		.loc 1 770 14 view .LVU177
 608 00d4 0446     		mov	r4, r0
 609              	.LVL49:
ARM GAS  /tmp/cchITXCi.s 			page 27


 770:Drivers/STM32G4xx_HAL_Driver/Src/stm32g4xx_hal_dac.c ****   }
 610              		.loc 1 770 14 view .LVU178
 611 00d6 C2E7     		b	.L40
 612              	.L47:
 780:Drivers/STM32G4xx_HAL_Driver/Src/stm32g4xx_hal_dac.c ****     /* Ensure minimum wait before using peripheral after enabling it */
 613              		.loc 1 780 5 is_stmt 1 view .LVU179
 614 00d8 3268     		ldr	r2, [r6]
 615 00da 1368     		ldr	r3, [r2]
 616 00dc 07F01001 		and	r1, r7, #16
 617 00e0 0120     		movs	r0, #1
 618 00e2 00FA01F1 		lsl	r1, r0, r1
 619 00e6 1943     		orrs	r1, r1, r3
 620 00e8 1160     		str	r1, [r2]
 782:Drivers/STM32G4xx_HAL_Driver/Src/stm32g4xx_hal_dac.c ****   }
 621              		.loc 1 782 5 view .LVU180
 622 00ea FFF7FEFF 		bl	HAL_Delay
 623              	.LVL50:
 624 00ee BEE7     		b	.L32
 625              	.LVL51:
 626              	.L42:
 680:Drivers/STM32G4xx_HAL_Driver/Src/stm32g4xx_hal_dac.c **** 
 627              		.loc 1 680 3 is_stmt 0 view .LVU181
 628 00f0 0224     		movs	r4, #2
 629 00f2 BCE7     		b	.L32
 630              	.L50:
 631              		.align	2
 632              	.L49:
 633 00f4 00000000 		.word	DAC_DMAConvCpltCh1
 634 00f8 00000000 		.word	DAC_DMAHalfConvCpltCh1
 635 00fc 00000000 		.word	DAC_DMAErrorCh1
 636 0100 00000000 		.word	DAC_DMAConvCpltCh2
 637 0104 00000000 		.word	DAC_DMAHalfConvCpltCh2
 638 0108 00000000 		.word	DAC_DMAErrorCh2
 639              		.cfi_endproc
 640              	.LFE138:
 642              		.section	.text.HAL_DAC_Stop_DMA,"ax",%progbits
 643              		.align	1
 644              		.global	HAL_DAC_Stop_DMA
 645              		.syntax unified
 646              		.thumb
 647              		.thumb_func
 648              		.fpu fpv4-sp-d16
 650              	HAL_DAC_Stop_DMA:
 651              	.LVL52:
 652              	.LFB139:
 792:Drivers/STM32G4xx_HAL_Driver/Src/stm32g4xx_hal_dac.c **** 
 793:Drivers/STM32G4xx_HAL_Driver/Src/stm32g4xx_hal_dac.c **** /**
 794:Drivers/STM32G4xx_HAL_Driver/Src/stm32g4xx_hal_dac.c ****   * @brief  Disables DAC and stop conversion of channel.
 795:Drivers/STM32G4xx_HAL_Driver/Src/stm32g4xx_hal_dac.c ****   * @param  hdac pointer to a DAC_HandleTypeDef structure that contains
 796:Drivers/STM32G4xx_HAL_Driver/Src/stm32g4xx_hal_dac.c ****   *         the configuration information for the specified DAC.
 797:Drivers/STM32G4xx_HAL_Driver/Src/stm32g4xx_hal_dac.c ****   * @param  Channel The selected DAC channel.
 798:Drivers/STM32G4xx_HAL_Driver/Src/stm32g4xx_hal_dac.c ****   *          This parameter can be one of the following values:
 799:Drivers/STM32G4xx_HAL_Driver/Src/stm32g4xx_hal_dac.c ****   *            @arg DAC_CHANNEL_1: DAC Channel1 selected
 800:Drivers/STM32G4xx_HAL_Driver/Src/stm32g4xx_hal_dac.c ****   *            @arg DAC_CHANNEL_2: DAC Channel2 selected (1)
 801:Drivers/STM32G4xx_HAL_Driver/Src/stm32g4xx_hal_dac.c ****   *
 802:Drivers/STM32G4xx_HAL_Driver/Src/stm32g4xx_hal_dac.c ****   *         (1) On this STM32 series, parameter not available on all instances.
 803:Drivers/STM32G4xx_HAL_Driver/Src/stm32g4xx_hal_dac.c ****   *             Refer to device datasheet for channels availability.
ARM GAS  /tmp/cchITXCi.s 			page 28


 804:Drivers/STM32G4xx_HAL_Driver/Src/stm32g4xx_hal_dac.c ****   * @retval HAL status
 805:Drivers/STM32G4xx_HAL_Driver/Src/stm32g4xx_hal_dac.c ****   */
 806:Drivers/STM32G4xx_HAL_Driver/Src/stm32g4xx_hal_dac.c **** HAL_StatusTypeDef HAL_DAC_Stop_DMA(DAC_HandleTypeDef *hdac, uint32_t Channel)
 807:Drivers/STM32G4xx_HAL_Driver/Src/stm32g4xx_hal_dac.c **** {
 653              		.loc 1 807 1 is_stmt 1 view -0
 654              		.cfi_startproc
 655              		@ args = 0, pretend = 0, frame = 0
 656              		@ frame_needed = 0, uses_anonymous_args = 0
 657              		.loc 1 807 1 is_stmt 0 view .LVU183
 658 0000 38B5     		push	{r3, r4, r5, lr}
 659              	.LCFI8:
 660              		.cfi_def_cfa_offset 16
 661              		.cfi_offset 3, -16
 662              		.cfi_offset 4, -12
 663              		.cfi_offset 5, -8
 664              		.cfi_offset 14, -4
 665 0002 0446     		mov	r4, r0
 666 0004 0D46     		mov	r5, r1
 808:Drivers/STM32G4xx_HAL_Driver/Src/stm32g4xx_hal_dac.c ****   /* Check the parameters */
 809:Drivers/STM32G4xx_HAL_Driver/Src/stm32g4xx_hal_dac.c ****   assert_param(IS_DAC_CHANNEL(hdac->Instance, Channel));
 667              		.loc 1 809 3 is_stmt 1 view .LVU184
 810:Drivers/STM32G4xx_HAL_Driver/Src/stm32g4xx_hal_dac.c **** 
 811:Drivers/STM32G4xx_HAL_Driver/Src/stm32g4xx_hal_dac.c ****   /* Disable the selected DAC channel DMA request */
 812:Drivers/STM32G4xx_HAL_Driver/Src/stm32g4xx_hal_dac.c ****   hdac->Instance->CR &= ~(DAC_CR_DMAEN1 << (Channel & 0x10UL));
 668              		.loc 1 812 3 view .LVU185
 669              		.loc 1 812 7 is_stmt 0 view .LVU186
 670 0006 0068     		ldr	r0, [r0]
 671              	.LVL53:
 672              		.loc 1 812 22 view .LVU187
 673 0008 0268     		ldr	r2, [r0]
 674              		.loc 1 812 53 view .LVU188
 675 000a 01F01003 		and	r3, r1, #16
 676              		.loc 1 812 41 view .LVU189
 677 000e 4FF48051 		mov	r1, #4096
 678              	.LVL54:
 679              		.loc 1 812 41 view .LVU190
 680 0012 9940     		lsls	r1, r1, r3
 681              		.loc 1 812 22 view .LVU191
 682 0014 22EA0102 		bic	r2, r2, r1
 683 0018 0260     		str	r2, [r0]
 813:Drivers/STM32G4xx_HAL_Driver/Src/stm32g4xx_hal_dac.c **** 
 814:Drivers/STM32G4xx_HAL_Driver/Src/stm32g4xx_hal_dac.c ****   /* Disable the Peripheral */
 815:Drivers/STM32G4xx_HAL_Driver/Src/stm32g4xx_hal_dac.c ****   __HAL_DAC_DISABLE(hdac, Channel);
 684              		.loc 1 815 3 is_stmt 1 view .LVU192
 685 001a 2168     		ldr	r1, [r4]
 686 001c 0A68     		ldr	r2, [r1]
 687 001e 0120     		movs	r0, #1
 688 0020 00FA03F3 		lsl	r3, r0, r3
 689 0024 22EA0303 		bic	r3, r2, r3
 690 0028 0B60     		str	r3, [r1]
 816:Drivers/STM32G4xx_HAL_Driver/Src/stm32g4xx_hal_dac.c ****   /* Ensure minimum wait before enabling peripheral after disabling it */
 817:Drivers/STM32G4xx_HAL_Driver/Src/stm32g4xx_hal_dac.c ****   HAL_Delay(1);
 691              		.loc 1 817 3 view .LVU193
 692 002a FFF7FEFF 		bl	HAL_Delay
 693              	.LVL55:
 818:Drivers/STM32G4xx_HAL_Driver/Src/stm32g4xx_hal_dac.c **** 
 819:Drivers/STM32G4xx_HAL_Driver/Src/stm32g4xx_hal_dac.c ****   /* Disable the DMA channel */
ARM GAS  /tmp/cchITXCi.s 			page 29


 820:Drivers/STM32G4xx_HAL_Driver/Src/stm32g4xx_hal_dac.c **** 
 821:Drivers/STM32G4xx_HAL_Driver/Src/stm32g4xx_hal_dac.c ****   /* Channel1 is used */
 822:Drivers/STM32G4xx_HAL_Driver/Src/stm32g4xx_hal_dac.c ****   if (Channel == DAC_CHANNEL_1)
 694              		.loc 1 822 3 view .LVU194
 695              		.loc 1 822 6 is_stmt 0 view .LVU195
 696 002e 5DB9     		cbnz	r5, .L52
 823:Drivers/STM32G4xx_HAL_Driver/Src/stm32g4xx_hal_dac.c ****   {
 824:Drivers/STM32G4xx_HAL_Driver/Src/stm32g4xx_hal_dac.c ****     /* Disable the DMA channel */
 825:Drivers/STM32G4xx_HAL_Driver/Src/stm32g4xx_hal_dac.c ****     (void)HAL_DMA_Abort(hdac->DMA_Handle1);
 697              		.loc 1 825 5 is_stmt 1 view .LVU196
 698              		.loc 1 825 11 is_stmt 0 view .LVU197
 699 0030 A068     		ldr	r0, [r4, #8]
 700 0032 FFF7FEFF 		bl	HAL_DMA_Abort
 701              	.LVL56:
 826:Drivers/STM32G4xx_HAL_Driver/Src/stm32g4xx_hal_dac.c **** 
 827:Drivers/STM32G4xx_HAL_Driver/Src/stm32g4xx_hal_dac.c ****     /* Disable the DAC DMA underrun interrupt */
 828:Drivers/STM32G4xx_HAL_Driver/Src/stm32g4xx_hal_dac.c ****     __HAL_DAC_DISABLE_IT(hdac, DAC_IT_DMAUDR1);
 702              		.loc 1 828 5 is_stmt 1 view .LVU198
 703 0036 2268     		ldr	r2, [r4]
 704 0038 1368     		ldr	r3, [r2]
 705 003a 23F40053 		bic	r3, r3, #8192
 706 003e 1360     		str	r3, [r2]
 707              	.L53:
 829:Drivers/STM32G4xx_HAL_Driver/Src/stm32g4xx_hal_dac.c ****   }
 830:Drivers/STM32G4xx_HAL_Driver/Src/stm32g4xx_hal_dac.c **** 
 831:Drivers/STM32G4xx_HAL_Driver/Src/stm32g4xx_hal_dac.c ****   else /* Channel2 is used for */
 832:Drivers/STM32G4xx_HAL_Driver/Src/stm32g4xx_hal_dac.c ****   {
 833:Drivers/STM32G4xx_HAL_Driver/Src/stm32g4xx_hal_dac.c ****     /* Disable the DMA channel */
 834:Drivers/STM32G4xx_HAL_Driver/Src/stm32g4xx_hal_dac.c ****     (void)HAL_DMA_Abort(hdac->DMA_Handle2);
 835:Drivers/STM32G4xx_HAL_Driver/Src/stm32g4xx_hal_dac.c **** 
 836:Drivers/STM32G4xx_HAL_Driver/Src/stm32g4xx_hal_dac.c ****     /* Disable the DAC DMA underrun interrupt */
 837:Drivers/STM32G4xx_HAL_Driver/Src/stm32g4xx_hal_dac.c ****     __HAL_DAC_DISABLE_IT(hdac, DAC_IT_DMAUDR2);
 838:Drivers/STM32G4xx_HAL_Driver/Src/stm32g4xx_hal_dac.c ****   }
 839:Drivers/STM32G4xx_HAL_Driver/Src/stm32g4xx_hal_dac.c **** 
 840:Drivers/STM32G4xx_HAL_Driver/Src/stm32g4xx_hal_dac.c **** 
 841:Drivers/STM32G4xx_HAL_Driver/Src/stm32g4xx_hal_dac.c ****   /* Change DAC state */
 842:Drivers/STM32G4xx_HAL_Driver/Src/stm32g4xx_hal_dac.c ****   hdac->State = HAL_DAC_STATE_READY;
 708              		.loc 1 842 3 view .LVU199
 709              		.loc 1 842 15 is_stmt 0 view .LVU200
 710 0040 0123     		movs	r3, #1
 711 0042 2371     		strb	r3, [r4, #4]
 843:Drivers/STM32G4xx_HAL_Driver/Src/stm32g4xx_hal_dac.c **** 
 844:Drivers/STM32G4xx_HAL_Driver/Src/stm32g4xx_hal_dac.c ****   /* Return function status */
 845:Drivers/STM32G4xx_HAL_Driver/Src/stm32g4xx_hal_dac.c ****   return HAL_OK;
 712              		.loc 1 845 3 is_stmt 1 view .LVU201
 846:Drivers/STM32G4xx_HAL_Driver/Src/stm32g4xx_hal_dac.c **** }
 713              		.loc 1 846 1 is_stmt 0 view .LVU202
 714 0044 0020     		movs	r0, #0
 715 0046 38BD     		pop	{r3, r4, r5, pc}
 716              	.LVL57:
 717              	.L52:
 834:Drivers/STM32G4xx_HAL_Driver/Src/stm32g4xx_hal_dac.c **** 
 718              		.loc 1 834 5 is_stmt 1 view .LVU203
 834:Drivers/STM32G4xx_HAL_Driver/Src/stm32g4xx_hal_dac.c **** 
 719              		.loc 1 834 11 is_stmt 0 view .LVU204
 720 0048 E068     		ldr	r0, [r4, #12]
 721 004a FFF7FEFF 		bl	HAL_DMA_Abort
ARM GAS  /tmp/cchITXCi.s 			page 30


 722              	.LVL58:
 837:Drivers/STM32G4xx_HAL_Driver/Src/stm32g4xx_hal_dac.c ****   }
 723              		.loc 1 837 5 is_stmt 1 view .LVU205
 724 004e 2268     		ldr	r2, [r4]
 725 0050 1368     		ldr	r3, [r2]
 726 0052 23F00053 		bic	r3, r3, #536870912
 727 0056 1360     		str	r3, [r2]
 728 0058 F2E7     		b	.L53
 729              		.cfi_endproc
 730              	.LFE139:
 732              		.section	.text.HAL_DAC_SetValue,"ax",%progbits
 733              		.align	1
 734              		.global	HAL_DAC_SetValue
 735              		.syntax unified
 736              		.thumb
 737              		.thumb_func
 738              		.fpu fpv4-sp-d16
 740              	HAL_DAC_SetValue:
 741              	.LVL59:
 742              	.LFB141:
 847:Drivers/STM32G4xx_HAL_Driver/Src/stm32g4xx_hal_dac.c **** 
 848:Drivers/STM32G4xx_HAL_Driver/Src/stm32g4xx_hal_dac.c **** /**
 849:Drivers/STM32G4xx_HAL_Driver/Src/stm32g4xx_hal_dac.c ****   * @brief  Handles DAC interrupt request
 850:Drivers/STM32G4xx_HAL_Driver/Src/stm32g4xx_hal_dac.c ****   *         This function uses the interruption of DMA
 851:Drivers/STM32G4xx_HAL_Driver/Src/stm32g4xx_hal_dac.c ****   *         underrun.
 852:Drivers/STM32G4xx_HAL_Driver/Src/stm32g4xx_hal_dac.c ****   * @param  hdac pointer to a DAC_HandleTypeDef structure that contains
 853:Drivers/STM32G4xx_HAL_Driver/Src/stm32g4xx_hal_dac.c ****   *         the configuration information for the specified DAC.
 854:Drivers/STM32G4xx_HAL_Driver/Src/stm32g4xx_hal_dac.c ****   * @retval None
 855:Drivers/STM32G4xx_HAL_Driver/Src/stm32g4xx_hal_dac.c ****   */
 856:Drivers/STM32G4xx_HAL_Driver/Src/stm32g4xx_hal_dac.c **** void HAL_DAC_IRQHandler(DAC_HandleTypeDef *hdac)
 857:Drivers/STM32G4xx_HAL_Driver/Src/stm32g4xx_hal_dac.c **** {
 858:Drivers/STM32G4xx_HAL_Driver/Src/stm32g4xx_hal_dac.c ****   if (__HAL_DAC_GET_IT_SOURCE(hdac, DAC_IT_DMAUDR1))
 859:Drivers/STM32G4xx_HAL_Driver/Src/stm32g4xx_hal_dac.c ****   {
 860:Drivers/STM32G4xx_HAL_Driver/Src/stm32g4xx_hal_dac.c ****     /* Check underrun flag of DAC channel 1 */
 861:Drivers/STM32G4xx_HAL_Driver/Src/stm32g4xx_hal_dac.c ****     if (__HAL_DAC_GET_FLAG(hdac, DAC_FLAG_DMAUDR1))
 862:Drivers/STM32G4xx_HAL_Driver/Src/stm32g4xx_hal_dac.c ****     {
 863:Drivers/STM32G4xx_HAL_Driver/Src/stm32g4xx_hal_dac.c ****       /* Change DAC state to error state */
 864:Drivers/STM32G4xx_HAL_Driver/Src/stm32g4xx_hal_dac.c ****       hdac->State = HAL_DAC_STATE_ERROR;
 865:Drivers/STM32G4xx_HAL_Driver/Src/stm32g4xx_hal_dac.c **** 
 866:Drivers/STM32G4xx_HAL_Driver/Src/stm32g4xx_hal_dac.c ****       /* Set DAC error code to channel1 DMA underrun error */
 867:Drivers/STM32G4xx_HAL_Driver/Src/stm32g4xx_hal_dac.c ****       SET_BIT(hdac->ErrorCode, HAL_DAC_ERROR_DMAUNDERRUNCH1);
 868:Drivers/STM32G4xx_HAL_Driver/Src/stm32g4xx_hal_dac.c **** 
 869:Drivers/STM32G4xx_HAL_Driver/Src/stm32g4xx_hal_dac.c ****       /* Clear the underrun flag */
 870:Drivers/STM32G4xx_HAL_Driver/Src/stm32g4xx_hal_dac.c ****       __HAL_DAC_CLEAR_FLAG(hdac, DAC_FLAG_DMAUDR1);
 871:Drivers/STM32G4xx_HAL_Driver/Src/stm32g4xx_hal_dac.c **** 
 872:Drivers/STM32G4xx_HAL_Driver/Src/stm32g4xx_hal_dac.c ****       /* Disable the selected DAC channel1 DMA request */
 873:Drivers/STM32G4xx_HAL_Driver/Src/stm32g4xx_hal_dac.c ****       CLEAR_BIT(hdac->Instance->CR, DAC_CR_DMAEN1);
 874:Drivers/STM32G4xx_HAL_Driver/Src/stm32g4xx_hal_dac.c **** 
 875:Drivers/STM32G4xx_HAL_Driver/Src/stm32g4xx_hal_dac.c ****       /* Error callback */
 876:Drivers/STM32G4xx_HAL_Driver/Src/stm32g4xx_hal_dac.c **** #if (USE_HAL_DAC_REGISTER_CALLBACKS == 1)
 877:Drivers/STM32G4xx_HAL_Driver/Src/stm32g4xx_hal_dac.c ****       hdac->DMAUnderrunCallbackCh1(hdac);
 878:Drivers/STM32G4xx_HAL_Driver/Src/stm32g4xx_hal_dac.c **** #else
 879:Drivers/STM32G4xx_HAL_Driver/Src/stm32g4xx_hal_dac.c ****       HAL_DAC_DMAUnderrunCallbackCh1(hdac);
 880:Drivers/STM32G4xx_HAL_Driver/Src/stm32g4xx_hal_dac.c **** #endif /* USE_HAL_DAC_REGISTER_CALLBACKS */
 881:Drivers/STM32G4xx_HAL_Driver/Src/stm32g4xx_hal_dac.c ****     }
 882:Drivers/STM32G4xx_HAL_Driver/Src/stm32g4xx_hal_dac.c ****   }
 883:Drivers/STM32G4xx_HAL_Driver/Src/stm32g4xx_hal_dac.c **** 
ARM GAS  /tmp/cchITXCi.s 			page 31


 884:Drivers/STM32G4xx_HAL_Driver/Src/stm32g4xx_hal_dac.c **** 
 885:Drivers/STM32G4xx_HAL_Driver/Src/stm32g4xx_hal_dac.c ****   if (__HAL_DAC_GET_IT_SOURCE(hdac, DAC_IT_DMAUDR2))
 886:Drivers/STM32G4xx_HAL_Driver/Src/stm32g4xx_hal_dac.c ****   {
 887:Drivers/STM32G4xx_HAL_Driver/Src/stm32g4xx_hal_dac.c ****     /* Check underrun flag of DAC channel 2 */
 888:Drivers/STM32G4xx_HAL_Driver/Src/stm32g4xx_hal_dac.c ****     if (__HAL_DAC_GET_FLAG(hdac, DAC_FLAG_DMAUDR2))
 889:Drivers/STM32G4xx_HAL_Driver/Src/stm32g4xx_hal_dac.c ****     {
 890:Drivers/STM32G4xx_HAL_Driver/Src/stm32g4xx_hal_dac.c ****       /* Change DAC state to error state */
 891:Drivers/STM32G4xx_HAL_Driver/Src/stm32g4xx_hal_dac.c ****       hdac->State = HAL_DAC_STATE_ERROR;
 892:Drivers/STM32G4xx_HAL_Driver/Src/stm32g4xx_hal_dac.c **** 
 893:Drivers/STM32G4xx_HAL_Driver/Src/stm32g4xx_hal_dac.c ****       /* Set DAC error code to channel2 DMA underrun error */
 894:Drivers/STM32G4xx_HAL_Driver/Src/stm32g4xx_hal_dac.c ****       SET_BIT(hdac->ErrorCode, HAL_DAC_ERROR_DMAUNDERRUNCH2);
 895:Drivers/STM32G4xx_HAL_Driver/Src/stm32g4xx_hal_dac.c **** 
 896:Drivers/STM32G4xx_HAL_Driver/Src/stm32g4xx_hal_dac.c ****       /* Clear the underrun flag */
 897:Drivers/STM32G4xx_HAL_Driver/Src/stm32g4xx_hal_dac.c ****       __HAL_DAC_CLEAR_FLAG(hdac, DAC_FLAG_DMAUDR2);
 898:Drivers/STM32G4xx_HAL_Driver/Src/stm32g4xx_hal_dac.c **** 
 899:Drivers/STM32G4xx_HAL_Driver/Src/stm32g4xx_hal_dac.c ****       /* Disable the selected DAC channel2 DMA request */
 900:Drivers/STM32G4xx_HAL_Driver/Src/stm32g4xx_hal_dac.c ****       CLEAR_BIT(hdac->Instance->CR, DAC_CR_DMAEN2);
 901:Drivers/STM32G4xx_HAL_Driver/Src/stm32g4xx_hal_dac.c **** 
 902:Drivers/STM32G4xx_HAL_Driver/Src/stm32g4xx_hal_dac.c ****       /* Error callback */
 903:Drivers/STM32G4xx_HAL_Driver/Src/stm32g4xx_hal_dac.c **** #if (USE_HAL_DAC_REGISTER_CALLBACKS == 1)
 904:Drivers/STM32G4xx_HAL_Driver/Src/stm32g4xx_hal_dac.c ****       hdac->DMAUnderrunCallbackCh2(hdac);
 905:Drivers/STM32G4xx_HAL_Driver/Src/stm32g4xx_hal_dac.c **** #else
 906:Drivers/STM32G4xx_HAL_Driver/Src/stm32g4xx_hal_dac.c ****       HAL_DACEx_DMAUnderrunCallbackCh2(hdac);
 907:Drivers/STM32G4xx_HAL_Driver/Src/stm32g4xx_hal_dac.c **** #endif /* USE_HAL_DAC_REGISTER_CALLBACKS */
 908:Drivers/STM32G4xx_HAL_Driver/Src/stm32g4xx_hal_dac.c ****     }
 909:Drivers/STM32G4xx_HAL_Driver/Src/stm32g4xx_hal_dac.c ****   }
 910:Drivers/STM32G4xx_HAL_Driver/Src/stm32g4xx_hal_dac.c **** 
 911:Drivers/STM32G4xx_HAL_Driver/Src/stm32g4xx_hal_dac.c **** }
 912:Drivers/STM32G4xx_HAL_Driver/Src/stm32g4xx_hal_dac.c **** 
 913:Drivers/STM32G4xx_HAL_Driver/Src/stm32g4xx_hal_dac.c **** /**
 914:Drivers/STM32G4xx_HAL_Driver/Src/stm32g4xx_hal_dac.c ****   * @brief  Set the specified data holding register value for DAC channel.
 915:Drivers/STM32G4xx_HAL_Driver/Src/stm32g4xx_hal_dac.c ****   * @param  hdac pointer to a DAC_HandleTypeDef structure that contains
 916:Drivers/STM32G4xx_HAL_Driver/Src/stm32g4xx_hal_dac.c ****   *         the configuration information for the specified DAC.
 917:Drivers/STM32G4xx_HAL_Driver/Src/stm32g4xx_hal_dac.c ****   * @param  Channel The selected DAC channel.
 918:Drivers/STM32G4xx_HAL_Driver/Src/stm32g4xx_hal_dac.c ****   *          This parameter can be one of the following values:
 919:Drivers/STM32G4xx_HAL_Driver/Src/stm32g4xx_hal_dac.c ****   *            @arg DAC_CHANNEL_1: DAC Channel1 selected
 920:Drivers/STM32G4xx_HAL_Driver/Src/stm32g4xx_hal_dac.c ****   *            @arg DAC_CHANNEL_2: DAC Channel2 selected (1)
 921:Drivers/STM32G4xx_HAL_Driver/Src/stm32g4xx_hal_dac.c ****   *
 922:Drivers/STM32G4xx_HAL_Driver/Src/stm32g4xx_hal_dac.c ****   *         (1) On this STM32 series, parameter not available on all instances.
 923:Drivers/STM32G4xx_HAL_Driver/Src/stm32g4xx_hal_dac.c ****   *             Refer to device datasheet for channels availability.
 924:Drivers/STM32G4xx_HAL_Driver/Src/stm32g4xx_hal_dac.c ****   * @param  Alignment Specifies the data alignment.
 925:Drivers/STM32G4xx_HAL_Driver/Src/stm32g4xx_hal_dac.c ****   *          This parameter can be one of the following values:
 926:Drivers/STM32G4xx_HAL_Driver/Src/stm32g4xx_hal_dac.c ****   *            @arg DAC_ALIGN_8B_R: 8bit right data alignment selected
 927:Drivers/STM32G4xx_HAL_Driver/Src/stm32g4xx_hal_dac.c ****   *            @arg DAC_ALIGN_12B_L: 12bit left data alignment selected
 928:Drivers/STM32G4xx_HAL_Driver/Src/stm32g4xx_hal_dac.c ****   *            @arg DAC_ALIGN_12B_R: 12bit right data alignment selected
 929:Drivers/STM32G4xx_HAL_Driver/Src/stm32g4xx_hal_dac.c ****   * @param  Data Data to be loaded in the selected data holding register.
 930:Drivers/STM32G4xx_HAL_Driver/Src/stm32g4xx_hal_dac.c ****   * @retval HAL status
 931:Drivers/STM32G4xx_HAL_Driver/Src/stm32g4xx_hal_dac.c ****   */
 932:Drivers/STM32G4xx_HAL_Driver/Src/stm32g4xx_hal_dac.c **** HAL_StatusTypeDef HAL_DAC_SetValue(DAC_HandleTypeDef *hdac, uint32_t Channel, uint32_t Alignment, u
 933:Drivers/STM32G4xx_HAL_Driver/Src/stm32g4xx_hal_dac.c **** {
 743              		.loc 1 933 1 view -0
 744              		.cfi_startproc
 745              		@ args = 0, pretend = 0, frame = 8
 746              		@ frame_needed = 0, uses_anonymous_args = 0
 747              		@ link register save eliminated.
 748              		.loc 1 933 1 is_stmt 0 view .LVU207
 749 0000 10B4     		push	{r4}
ARM GAS  /tmp/cchITXCi.s 			page 32


 750              	.LCFI9:
 751              		.cfi_def_cfa_offset 4
 752              		.cfi_offset 4, -4
 753 0002 83B0     		sub	sp, sp, #12
 754              	.LCFI10:
 755              		.cfi_def_cfa_offset 16
 934:Drivers/STM32G4xx_HAL_Driver/Src/stm32g4xx_hal_dac.c ****   __IO uint32_t tmp = 0UL;
 756              		.loc 1 934 3 is_stmt 1 view .LVU208
 757              		.loc 1 934 17 is_stmt 0 view .LVU209
 758 0004 0024     		movs	r4, #0
 759 0006 0194     		str	r4, [sp, #4]
 935:Drivers/STM32G4xx_HAL_Driver/Src/stm32g4xx_hal_dac.c **** 
 936:Drivers/STM32G4xx_HAL_Driver/Src/stm32g4xx_hal_dac.c ****   /* Check the parameters */
 937:Drivers/STM32G4xx_HAL_Driver/Src/stm32g4xx_hal_dac.c ****   assert_param(IS_DAC_CHANNEL(hdac->Instance, Channel));
 760              		.loc 1 937 3 is_stmt 1 view .LVU210
 938:Drivers/STM32G4xx_HAL_Driver/Src/stm32g4xx_hal_dac.c ****   assert_param(IS_DAC_ALIGN(Alignment));
 761              		.loc 1 938 3 view .LVU211
 939:Drivers/STM32G4xx_HAL_Driver/Src/stm32g4xx_hal_dac.c ****   /* In case DMA Double data mode is activated, DATA range is almost full uin32_t one: no check */
 940:Drivers/STM32G4xx_HAL_Driver/Src/stm32g4xx_hal_dac.c ****   if ((hdac->Instance->MCR & (DAC_MCR_DMADOUBLE1 << (Channel & 0x10UL))) == 0UL)
 762              		.loc 1 940 3 view .LVU212
 763              		.loc 1 940 12 is_stmt 0 view .LVU213
 764 0008 0068     		ldr	r0, [r0]
 765              	.LVL60:
 766              		.loc 1 940 22 view .LVU214
 767 000a C46B     		ldr	r4, [r0, #60]
 941:Drivers/STM32G4xx_HAL_Driver/Src/stm32g4xx_hal_dac.c ****   {
 942:Drivers/STM32G4xx_HAL_Driver/Src/stm32g4xx_hal_dac.c ****     assert_param(IS_DAC_DATA(Data));
 768              		.loc 1 942 5 is_stmt 1 view .LVU215
 943:Drivers/STM32G4xx_HAL_Driver/Src/stm32g4xx_hal_dac.c ****   }
 944:Drivers/STM32G4xx_HAL_Driver/Src/stm32g4xx_hal_dac.c **** 
 945:Drivers/STM32G4xx_HAL_Driver/Src/stm32g4xx_hal_dac.c ****   tmp = (uint32_t)hdac->Instance;
 769              		.loc 1 945 3 view .LVU216
 770              		.loc 1 945 7 is_stmt 0 view .LVU217
 771 000c 0190     		str	r0, [sp, #4]
 946:Drivers/STM32G4xx_HAL_Driver/Src/stm32g4xx_hal_dac.c ****   if (Channel == DAC_CHANNEL_1)
 772              		.loc 1 946 3 is_stmt 1 view .LVU218
 773              		.loc 1 946 6 is_stmt 0 view .LVU219
 774 000e 51B9     		cbnz	r1, .L56
 947:Drivers/STM32G4xx_HAL_Driver/Src/stm32g4xx_hal_dac.c ****   {
 948:Drivers/STM32G4xx_HAL_Driver/Src/stm32g4xx_hal_dac.c ****     tmp += DAC_DHR12R1_ALIGNMENT(Alignment);
 775              		.loc 1 948 5 is_stmt 1 view .LVU220
 776              		.loc 1 948 9 is_stmt 0 view .LVU221
 777 0010 0199     		ldr	r1, [sp, #4]
 778              	.LVL61:
 779              		.loc 1 948 9 view .LVU222
 780 0012 1144     		add	r1, r1, r2
 781 0014 0831     		adds	r1, r1, #8
 782 0016 0191     		str	r1, [sp, #4]
 783              	.L57:
 949:Drivers/STM32G4xx_HAL_Driver/Src/stm32g4xx_hal_dac.c ****   }
 950:Drivers/STM32G4xx_HAL_Driver/Src/stm32g4xx_hal_dac.c **** 
 951:Drivers/STM32G4xx_HAL_Driver/Src/stm32g4xx_hal_dac.c ****   else
 952:Drivers/STM32G4xx_HAL_Driver/Src/stm32g4xx_hal_dac.c ****   {
 953:Drivers/STM32G4xx_HAL_Driver/Src/stm32g4xx_hal_dac.c ****     tmp += DAC_DHR12R2_ALIGNMENT(Alignment);
 954:Drivers/STM32G4xx_HAL_Driver/Src/stm32g4xx_hal_dac.c ****   }
 955:Drivers/STM32G4xx_HAL_Driver/Src/stm32g4xx_hal_dac.c **** 
 956:Drivers/STM32G4xx_HAL_Driver/Src/stm32g4xx_hal_dac.c **** 
ARM GAS  /tmp/cchITXCi.s 			page 33


 957:Drivers/STM32G4xx_HAL_Driver/Src/stm32g4xx_hal_dac.c ****   /* Set the DAC channel selected data holding register */
 958:Drivers/STM32G4xx_HAL_Driver/Src/stm32g4xx_hal_dac.c ****   *(__IO uint32_t *) tmp = Data;
 784              		.loc 1 958 3 is_stmt 1 view .LVU223
 785              		.loc 1 958 4 is_stmt 0 view .LVU224
 786 0018 019A     		ldr	r2, [sp, #4]
 787              	.LVL62:
 788              		.loc 1 958 26 view .LVU225
 789 001a 1360     		str	r3, [r2]
 959:Drivers/STM32G4xx_HAL_Driver/Src/stm32g4xx_hal_dac.c **** 
 960:Drivers/STM32G4xx_HAL_Driver/Src/stm32g4xx_hal_dac.c ****   /* Return function status */
 961:Drivers/STM32G4xx_HAL_Driver/Src/stm32g4xx_hal_dac.c ****   return HAL_OK;
 790              		.loc 1 961 3 is_stmt 1 view .LVU226
 962:Drivers/STM32G4xx_HAL_Driver/Src/stm32g4xx_hal_dac.c **** }
 791              		.loc 1 962 1 is_stmt 0 view .LVU227
 792 001c 0020     		movs	r0, #0
 793 001e 03B0     		add	sp, sp, #12
 794              	.LCFI11:
 795              		.cfi_remember_state
 796              		.cfi_def_cfa_offset 4
 797              		@ sp needed
 798 0020 5DF8044B 		ldr	r4, [sp], #4
 799              	.LCFI12:
 800              		.cfi_restore 4
 801              		.cfi_def_cfa_offset 0
 802 0024 7047     		bx	lr
 803              	.LVL63:
 804              	.L56:
 805              	.LCFI13:
 806              		.cfi_restore_state
 953:Drivers/STM32G4xx_HAL_Driver/Src/stm32g4xx_hal_dac.c ****   }
 807              		.loc 1 953 5 is_stmt 1 view .LVU228
 953:Drivers/STM32G4xx_HAL_Driver/Src/stm32g4xx_hal_dac.c ****   }
 808              		.loc 1 953 9 is_stmt 0 view .LVU229
 809 0026 0199     		ldr	r1, [sp, #4]
 810              	.LVL64:
 953:Drivers/STM32G4xx_HAL_Driver/Src/stm32g4xx_hal_dac.c ****   }
 811              		.loc 1 953 9 view .LVU230
 812 0028 1144     		add	r1, r1, r2
 813 002a 1431     		adds	r1, r1, #20
 814 002c 0191     		str	r1, [sp, #4]
 815 002e F3E7     		b	.L57
 816              		.cfi_endproc
 817              	.LFE141:
 819              		.section	.text.HAL_DAC_ConvCpltCallbackCh1,"ax",%progbits
 820              		.align	1
 821              		.weak	HAL_DAC_ConvCpltCallbackCh1
 822              		.syntax unified
 823              		.thumb
 824              		.thumb_func
 825              		.fpu fpv4-sp-d16
 827              	HAL_DAC_ConvCpltCallbackCh1:
 828              	.LVL65:
 829              	.LFB142:
 963:Drivers/STM32G4xx_HAL_Driver/Src/stm32g4xx_hal_dac.c **** 
 964:Drivers/STM32G4xx_HAL_Driver/Src/stm32g4xx_hal_dac.c **** /**
 965:Drivers/STM32G4xx_HAL_Driver/Src/stm32g4xx_hal_dac.c ****   * @brief  Conversion complete callback in non-blocking mode for Channel1
 966:Drivers/STM32G4xx_HAL_Driver/Src/stm32g4xx_hal_dac.c ****   * @param  hdac pointer to a DAC_HandleTypeDef structure that contains
ARM GAS  /tmp/cchITXCi.s 			page 34


 967:Drivers/STM32G4xx_HAL_Driver/Src/stm32g4xx_hal_dac.c ****   *         the configuration information for the specified DAC.
 968:Drivers/STM32G4xx_HAL_Driver/Src/stm32g4xx_hal_dac.c ****   * @retval None
 969:Drivers/STM32G4xx_HAL_Driver/Src/stm32g4xx_hal_dac.c ****   */
 970:Drivers/STM32G4xx_HAL_Driver/Src/stm32g4xx_hal_dac.c **** __weak void HAL_DAC_ConvCpltCallbackCh1(DAC_HandleTypeDef *hdac)
 971:Drivers/STM32G4xx_HAL_Driver/Src/stm32g4xx_hal_dac.c **** {
 830              		.loc 1 971 1 is_stmt 1 view -0
 831              		.cfi_startproc
 832              		@ args = 0, pretend = 0, frame = 0
 833              		@ frame_needed = 0, uses_anonymous_args = 0
 834              		@ link register save eliminated.
 972:Drivers/STM32G4xx_HAL_Driver/Src/stm32g4xx_hal_dac.c ****   /* Prevent unused argument(s) compilation warning */
 973:Drivers/STM32G4xx_HAL_Driver/Src/stm32g4xx_hal_dac.c ****   UNUSED(hdac);
 835              		.loc 1 973 3 view .LVU232
 974:Drivers/STM32G4xx_HAL_Driver/Src/stm32g4xx_hal_dac.c **** 
 975:Drivers/STM32G4xx_HAL_Driver/Src/stm32g4xx_hal_dac.c ****   /* NOTE : This function should not be modified, when the callback is needed,
 976:Drivers/STM32G4xx_HAL_Driver/Src/stm32g4xx_hal_dac.c ****             the HAL_DAC_ConvCpltCallbackCh1 could be implemented in the user file
 977:Drivers/STM32G4xx_HAL_Driver/Src/stm32g4xx_hal_dac.c ****    */
 978:Drivers/STM32G4xx_HAL_Driver/Src/stm32g4xx_hal_dac.c **** }
 836              		.loc 1 978 1 is_stmt 0 view .LVU233
 837 0000 7047     		bx	lr
 838              		.cfi_endproc
 839              	.LFE142:
 841              		.section	.text.DAC_DMAConvCpltCh1,"ax",%progbits
 842              		.align	1
 843              		.global	DAC_DMAConvCpltCh1
 844              		.syntax unified
 845              		.thumb
 846              		.thumb_func
 847              		.fpu fpv4-sp-d16
 849              	DAC_DMAConvCpltCh1:
 850              	.LVL66:
 851              	.LFB150:
 979:Drivers/STM32G4xx_HAL_Driver/Src/stm32g4xx_hal_dac.c **** 
 980:Drivers/STM32G4xx_HAL_Driver/Src/stm32g4xx_hal_dac.c **** /**
 981:Drivers/STM32G4xx_HAL_Driver/Src/stm32g4xx_hal_dac.c ****   * @brief  Conversion half DMA transfer callback in non-blocking mode for Channel1
 982:Drivers/STM32G4xx_HAL_Driver/Src/stm32g4xx_hal_dac.c ****   * @param  hdac pointer to a DAC_HandleTypeDef structure that contains
 983:Drivers/STM32G4xx_HAL_Driver/Src/stm32g4xx_hal_dac.c ****   *         the configuration information for the specified DAC.
 984:Drivers/STM32G4xx_HAL_Driver/Src/stm32g4xx_hal_dac.c ****   * @retval None
 985:Drivers/STM32G4xx_HAL_Driver/Src/stm32g4xx_hal_dac.c ****   */
 986:Drivers/STM32G4xx_HAL_Driver/Src/stm32g4xx_hal_dac.c **** __weak void HAL_DAC_ConvHalfCpltCallbackCh1(DAC_HandleTypeDef *hdac)
 987:Drivers/STM32G4xx_HAL_Driver/Src/stm32g4xx_hal_dac.c **** {
 988:Drivers/STM32G4xx_HAL_Driver/Src/stm32g4xx_hal_dac.c ****   /* Prevent unused argument(s) compilation warning */
 989:Drivers/STM32G4xx_HAL_Driver/Src/stm32g4xx_hal_dac.c ****   UNUSED(hdac);
 990:Drivers/STM32G4xx_HAL_Driver/Src/stm32g4xx_hal_dac.c **** 
 991:Drivers/STM32G4xx_HAL_Driver/Src/stm32g4xx_hal_dac.c ****   /* NOTE : This function should not be modified, when the callback is needed,
 992:Drivers/STM32G4xx_HAL_Driver/Src/stm32g4xx_hal_dac.c ****             the HAL_DAC_ConvHalfCpltCallbackCh1 could be implemented in the user file
 993:Drivers/STM32G4xx_HAL_Driver/Src/stm32g4xx_hal_dac.c ****    */
 994:Drivers/STM32G4xx_HAL_Driver/Src/stm32g4xx_hal_dac.c **** }
 995:Drivers/STM32G4xx_HAL_Driver/Src/stm32g4xx_hal_dac.c **** 
 996:Drivers/STM32G4xx_HAL_Driver/Src/stm32g4xx_hal_dac.c **** /**
 997:Drivers/STM32G4xx_HAL_Driver/Src/stm32g4xx_hal_dac.c ****   * @brief  Error DAC callback for Channel1.
 998:Drivers/STM32G4xx_HAL_Driver/Src/stm32g4xx_hal_dac.c ****   * @param  hdac pointer to a DAC_HandleTypeDef structure that contains
 999:Drivers/STM32G4xx_HAL_Driver/Src/stm32g4xx_hal_dac.c ****   *         the configuration information for the specified DAC.
1000:Drivers/STM32G4xx_HAL_Driver/Src/stm32g4xx_hal_dac.c ****   * @retval None
1001:Drivers/STM32G4xx_HAL_Driver/Src/stm32g4xx_hal_dac.c ****   */
1002:Drivers/STM32G4xx_HAL_Driver/Src/stm32g4xx_hal_dac.c **** __weak void HAL_DAC_ErrorCallbackCh1(DAC_HandleTypeDef *hdac)
1003:Drivers/STM32G4xx_HAL_Driver/Src/stm32g4xx_hal_dac.c **** {
ARM GAS  /tmp/cchITXCi.s 			page 35


1004:Drivers/STM32G4xx_HAL_Driver/Src/stm32g4xx_hal_dac.c ****   /* Prevent unused argument(s) compilation warning */
1005:Drivers/STM32G4xx_HAL_Driver/Src/stm32g4xx_hal_dac.c ****   UNUSED(hdac);
1006:Drivers/STM32G4xx_HAL_Driver/Src/stm32g4xx_hal_dac.c **** 
1007:Drivers/STM32G4xx_HAL_Driver/Src/stm32g4xx_hal_dac.c ****   /* NOTE : This function should not be modified, when the callback is needed,
1008:Drivers/STM32G4xx_HAL_Driver/Src/stm32g4xx_hal_dac.c ****             the HAL_DAC_ErrorCallbackCh1 could be implemented in the user file
1009:Drivers/STM32G4xx_HAL_Driver/Src/stm32g4xx_hal_dac.c ****    */
1010:Drivers/STM32G4xx_HAL_Driver/Src/stm32g4xx_hal_dac.c **** }
1011:Drivers/STM32G4xx_HAL_Driver/Src/stm32g4xx_hal_dac.c **** 
1012:Drivers/STM32G4xx_HAL_Driver/Src/stm32g4xx_hal_dac.c **** /**
1013:Drivers/STM32G4xx_HAL_Driver/Src/stm32g4xx_hal_dac.c ****   * @brief  DMA underrun DAC callback for channel1.
1014:Drivers/STM32G4xx_HAL_Driver/Src/stm32g4xx_hal_dac.c ****   * @param  hdac pointer to a DAC_HandleTypeDef structure that contains
1015:Drivers/STM32G4xx_HAL_Driver/Src/stm32g4xx_hal_dac.c ****   *         the configuration information for the specified DAC.
1016:Drivers/STM32G4xx_HAL_Driver/Src/stm32g4xx_hal_dac.c ****   * @retval None
1017:Drivers/STM32G4xx_HAL_Driver/Src/stm32g4xx_hal_dac.c ****   */
1018:Drivers/STM32G4xx_HAL_Driver/Src/stm32g4xx_hal_dac.c **** __weak void HAL_DAC_DMAUnderrunCallbackCh1(DAC_HandleTypeDef *hdac)
1019:Drivers/STM32G4xx_HAL_Driver/Src/stm32g4xx_hal_dac.c **** {
1020:Drivers/STM32G4xx_HAL_Driver/Src/stm32g4xx_hal_dac.c ****   /* Prevent unused argument(s) compilation warning */
1021:Drivers/STM32G4xx_HAL_Driver/Src/stm32g4xx_hal_dac.c ****   UNUSED(hdac);
1022:Drivers/STM32G4xx_HAL_Driver/Src/stm32g4xx_hal_dac.c **** 
1023:Drivers/STM32G4xx_HAL_Driver/Src/stm32g4xx_hal_dac.c ****   /* NOTE : This function should not be modified, when the callback is needed,
1024:Drivers/STM32G4xx_HAL_Driver/Src/stm32g4xx_hal_dac.c ****             the HAL_DAC_DMAUnderrunCallbackCh1 could be implemented in the user file
1025:Drivers/STM32G4xx_HAL_Driver/Src/stm32g4xx_hal_dac.c ****    */
1026:Drivers/STM32G4xx_HAL_Driver/Src/stm32g4xx_hal_dac.c **** }
1027:Drivers/STM32G4xx_HAL_Driver/Src/stm32g4xx_hal_dac.c **** 
1028:Drivers/STM32G4xx_HAL_Driver/Src/stm32g4xx_hal_dac.c **** /**
1029:Drivers/STM32G4xx_HAL_Driver/Src/stm32g4xx_hal_dac.c ****   * @}
1030:Drivers/STM32G4xx_HAL_Driver/Src/stm32g4xx_hal_dac.c ****   */
1031:Drivers/STM32G4xx_HAL_Driver/Src/stm32g4xx_hal_dac.c **** 
1032:Drivers/STM32G4xx_HAL_Driver/Src/stm32g4xx_hal_dac.c **** /** @defgroup DAC_Exported_Functions_Group3 Peripheral Control functions
1033:Drivers/STM32G4xx_HAL_Driver/Src/stm32g4xx_hal_dac.c ****   *  @brief    Peripheral Control functions
1034:Drivers/STM32G4xx_HAL_Driver/Src/stm32g4xx_hal_dac.c ****   *
1035:Drivers/STM32G4xx_HAL_Driver/Src/stm32g4xx_hal_dac.c **** @verbatim
1036:Drivers/STM32G4xx_HAL_Driver/Src/stm32g4xx_hal_dac.c ****   ==============================================================================
1037:Drivers/STM32G4xx_HAL_Driver/Src/stm32g4xx_hal_dac.c ****              ##### Peripheral Control functions #####
1038:Drivers/STM32G4xx_HAL_Driver/Src/stm32g4xx_hal_dac.c ****   ==============================================================================
1039:Drivers/STM32G4xx_HAL_Driver/Src/stm32g4xx_hal_dac.c ****     [..]  This section provides functions allowing to:
1040:Drivers/STM32G4xx_HAL_Driver/Src/stm32g4xx_hal_dac.c ****       (+) Configure channels.
1041:Drivers/STM32G4xx_HAL_Driver/Src/stm32g4xx_hal_dac.c ****       (+) Set the specified data holding register value for DAC channel.
1042:Drivers/STM32G4xx_HAL_Driver/Src/stm32g4xx_hal_dac.c **** 
1043:Drivers/STM32G4xx_HAL_Driver/Src/stm32g4xx_hal_dac.c **** @endverbatim
1044:Drivers/STM32G4xx_HAL_Driver/Src/stm32g4xx_hal_dac.c ****   * @{
1045:Drivers/STM32G4xx_HAL_Driver/Src/stm32g4xx_hal_dac.c ****   */
1046:Drivers/STM32G4xx_HAL_Driver/Src/stm32g4xx_hal_dac.c **** 
1047:Drivers/STM32G4xx_HAL_Driver/Src/stm32g4xx_hal_dac.c **** /**
1048:Drivers/STM32G4xx_HAL_Driver/Src/stm32g4xx_hal_dac.c ****   * @brief  Returns the last data output value of the selected DAC channel.
1049:Drivers/STM32G4xx_HAL_Driver/Src/stm32g4xx_hal_dac.c ****   * @param  hdac pointer to a DAC_HandleTypeDef structure that contains
1050:Drivers/STM32G4xx_HAL_Driver/Src/stm32g4xx_hal_dac.c ****   *         the configuration information for the specified DAC.
1051:Drivers/STM32G4xx_HAL_Driver/Src/stm32g4xx_hal_dac.c ****   * @param  Channel The selected DAC channel.
1052:Drivers/STM32G4xx_HAL_Driver/Src/stm32g4xx_hal_dac.c ****   *          This parameter can be one of the following values:
1053:Drivers/STM32G4xx_HAL_Driver/Src/stm32g4xx_hal_dac.c ****   *            @arg DAC_CHANNEL_1: DAC Channel1 selected
1054:Drivers/STM32G4xx_HAL_Driver/Src/stm32g4xx_hal_dac.c ****   *            @arg DAC_CHANNEL_2: DAC Channel2 selected (1)
1055:Drivers/STM32G4xx_HAL_Driver/Src/stm32g4xx_hal_dac.c ****   *
1056:Drivers/STM32G4xx_HAL_Driver/Src/stm32g4xx_hal_dac.c ****   *         (1) On this STM32 series, parameter not available on all instances.
1057:Drivers/STM32G4xx_HAL_Driver/Src/stm32g4xx_hal_dac.c ****   *             Refer to device datasheet for channels availability.
1058:Drivers/STM32G4xx_HAL_Driver/Src/stm32g4xx_hal_dac.c ****   * @retval The selected DAC channel data output value.
1059:Drivers/STM32G4xx_HAL_Driver/Src/stm32g4xx_hal_dac.c ****   */
1060:Drivers/STM32G4xx_HAL_Driver/Src/stm32g4xx_hal_dac.c **** uint32_t HAL_DAC_GetValue(DAC_HandleTypeDef *hdac, uint32_t Channel)
ARM GAS  /tmp/cchITXCi.s 			page 36


1061:Drivers/STM32G4xx_HAL_Driver/Src/stm32g4xx_hal_dac.c **** {
1062:Drivers/STM32G4xx_HAL_Driver/Src/stm32g4xx_hal_dac.c ****   uint32_t result;
1063:Drivers/STM32G4xx_HAL_Driver/Src/stm32g4xx_hal_dac.c **** 
1064:Drivers/STM32G4xx_HAL_Driver/Src/stm32g4xx_hal_dac.c ****   /* Check the parameters */
1065:Drivers/STM32G4xx_HAL_Driver/Src/stm32g4xx_hal_dac.c ****   assert_param(IS_DAC_CHANNEL(hdac->Instance, Channel));
1066:Drivers/STM32G4xx_HAL_Driver/Src/stm32g4xx_hal_dac.c **** 
1067:Drivers/STM32G4xx_HAL_Driver/Src/stm32g4xx_hal_dac.c ****   if (Channel == DAC_CHANNEL_1)
1068:Drivers/STM32G4xx_HAL_Driver/Src/stm32g4xx_hal_dac.c ****   {
1069:Drivers/STM32G4xx_HAL_Driver/Src/stm32g4xx_hal_dac.c ****     result = hdac->Instance->DOR1;
1070:Drivers/STM32G4xx_HAL_Driver/Src/stm32g4xx_hal_dac.c ****   }
1071:Drivers/STM32G4xx_HAL_Driver/Src/stm32g4xx_hal_dac.c **** 
1072:Drivers/STM32G4xx_HAL_Driver/Src/stm32g4xx_hal_dac.c ****   else
1073:Drivers/STM32G4xx_HAL_Driver/Src/stm32g4xx_hal_dac.c ****   {
1074:Drivers/STM32G4xx_HAL_Driver/Src/stm32g4xx_hal_dac.c ****     result = hdac->Instance->DOR2;
1075:Drivers/STM32G4xx_HAL_Driver/Src/stm32g4xx_hal_dac.c ****   }
1076:Drivers/STM32G4xx_HAL_Driver/Src/stm32g4xx_hal_dac.c **** 
1077:Drivers/STM32G4xx_HAL_Driver/Src/stm32g4xx_hal_dac.c ****   /* Returns the DAC channel data output register value */
1078:Drivers/STM32G4xx_HAL_Driver/Src/stm32g4xx_hal_dac.c ****   return result;
1079:Drivers/STM32G4xx_HAL_Driver/Src/stm32g4xx_hal_dac.c **** }
1080:Drivers/STM32G4xx_HAL_Driver/Src/stm32g4xx_hal_dac.c **** 
1081:Drivers/STM32G4xx_HAL_Driver/Src/stm32g4xx_hal_dac.c **** /**
1082:Drivers/STM32G4xx_HAL_Driver/Src/stm32g4xx_hal_dac.c ****   * @brief  Configures the selected DAC channel.
1083:Drivers/STM32G4xx_HAL_Driver/Src/stm32g4xx_hal_dac.c ****   * @note   By calling this function, the high frequency interface mode (HFSEL bits)
1084:Drivers/STM32G4xx_HAL_Driver/Src/stm32g4xx_hal_dac.c ****   *         will be set. This parameter scope is the DAC instance. As the function
1085:Drivers/STM32G4xx_HAL_Driver/Src/stm32g4xx_hal_dac.c ****   *         is called for each channel, the @ref DAC_HighFrequency of @arg sConfig
1086:Drivers/STM32G4xx_HAL_Driver/Src/stm32g4xx_hal_dac.c ****   *         must be the same at each call.
1087:Drivers/STM32G4xx_HAL_Driver/Src/stm32g4xx_hal_dac.c ****   *         (or DAC_HIGH_FREQUENCY_INTERFACE_MODE_AUTOMATIC self detect).
1088:Drivers/STM32G4xx_HAL_Driver/Src/stm32g4xx_hal_dac.c ****   * @param  hdac pointer to a DAC_HandleTypeDef structure that contains
1089:Drivers/STM32G4xx_HAL_Driver/Src/stm32g4xx_hal_dac.c ****   *         the configuration information for the specified DAC.
1090:Drivers/STM32G4xx_HAL_Driver/Src/stm32g4xx_hal_dac.c ****   * @param  sConfig DAC configuration structure.
1091:Drivers/STM32G4xx_HAL_Driver/Src/stm32g4xx_hal_dac.c ****   * @param  Channel The selected DAC channel.
1092:Drivers/STM32G4xx_HAL_Driver/Src/stm32g4xx_hal_dac.c ****   *          This parameter can be one of the following values:
1093:Drivers/STM32G4xx_HAL_Driver/Src/stm32g4xx_hal_dac.c ****   *            @arg DAC_CHANNEL_1: DAC Channel1 selected
1094:Drivers/STM32G4xx_HAL_Driver/Src/stm32g4xx_hal_dac.c ****   *            @arg DAC_CHANNEL_2: DAC Channel2 selected (1)
1095:Drivers/STM32G4xx_HAL_Driver/Src/stm32g4xx_hal_dac.c ****   *
1096:Drivers/STM32G4xx_HAL_Driver/Src/stm32g4xx_hal_dac.c ****   *         (1) On this STM32 series, parameter not available on all instances.
1097:Drivers/STM32G4xx_HAL_Driver/Src/stm32g4xx_hal_dac.c ****   *             Refer to device datasheet for channels availability.
1098:Drivers/STM32G4xx_HAL_Driver/Src/stm32g4xx_hal_dac.c ****   * @retval HAL status
1099:Drivers/STM32G4xx_HAL_Driver/Src/stm32g4xx_hal_dac.c ****   */
1100:Drivers/STM32G4xx_HAL_Driver/Src/stm32g4xx_hal_dac.c **** HAL_StatusTypeDef HAL_DAC_ConfigChannel(DAC_HandleTypeDef *hdac, DAC_ChannelConfTypeDef *sConfig, u
1101:Drivers/STM32G4xx_HAL_Driver/Src/stm32g4xx_hal_dac.c **** {
1102:Drivers/STM32G4xx_HAL_Driver/Src/stm32g4xx_hal_dac.c ****   uint32_t tmpreg1;
1103:Drivers/STM32G4xx_HAL_Driver/Src/stm32g4xx_hal_dac.c ****   uint32_t tmpreg2;
1104:Drivers/STM32G4xx_HAL_Driver/Src/stm32g4xx_hal_dac.c ****   uint32_t tickstart;
1105:Drivers/STM32G4xx_HAL_Driver/Src/stm32g4xx_hal_dac.c ****   uint32_t hclkfreq;
1106:Drivers/STM32G4xx_HAL_Driver/Src/stm32g4xx_hal_dac.c ****   uint32_t connectOnChip;
1107:Drivers/STM32G4xx_HAL_Driver/Src/stm32g4xx_hal_dac.c **** 
1108:Drivers/STM32G4xx_HAL_Driver/Src/stm32g4xx_hal_dac.c ****   /* Check the DAC parameters */
1109:Drivers/STM32G4xx_HAL_Driver/Src/stm32g4xx_hal_dac.c ****   assert_param(IS_DAC_HIGH_FREQUENCY_MODE(sConfig->DAC_HighFrequency));
1110:Drivers/STM32G4xx_HAL_Driver/Src/stm32g4xx_hal_dac.c ****   assert_param(IS_DAC_TRIGGER(hdac->Instance, sConfig->DAC_Trigger));
1111:Drivers/STM32G4xx_HAL_Driver/Src/stm32g4xx_hal_dac.c ****   assert_param(IS_DAC_TRIGGER(hdac->Instance, sConfig->DAC_Trigger2));
1112:Drivers/STM32G4xx_HAL_Driver/Src/stm32g4xx_hal_dac.c ****   assert_param(IS_DAC_OUTPUT_BUFFER_STATE(sConfig->DAC_OutputBuffer));
1113:Drivers/STM32G4xx_HAL_Driver/Src/stm32g4xx_hal_dac.c ****   assert_param(IS_DAC_CHIP_CONNECTION(sConfig->DAC_ConnectOnChipPeripheral));
1114:Drivers/STM32G4xx_HAL_Driver/Src/stm32g4xx_hal_dac.c ****   assert_param(IS_DAC_TRIMMING(sConfig->DAC_UserTrimming));
1115:Drivers/STM32G4xx_HAL_Driver/Src/stm32g4xx_hal_dac.c ****   if ((sConfig->DAC_UserTrimming) == DAC_TRIMMING_USER)
1116:Drivers/STM32G4xx_HAL_Driver/Src/stm32g4xx_hal_dac.c ****   {
1117:Drivers/STM32G4xx_HAL_Driver/Src/stm32g4xx_hal_dac.c ****     assert_param(IS_DAC_TRIMMINGVALUE(sConfig->DAC_TrimmingValue));
ARM GAS  /tmp/cchITXCi.s 			page 37


1118:Drivers/STM32G4xx_HAL_Driver/Src/stm32g4xx_hal_dac.c ****   }
1119:Drivers/STM32G4xx_HAL_Driver/Src/stm32g4xx_hal_dac.c ****   assert_param(IS_DAC_SAMPLEANDHOLD(sConfig->DAC_SampleAndHold));
1120:Drivers/STM32G4xx_HAL_Driver/Src/stm32g4xx_hal_dac.c ****   if ((sConfig->DAC_SampleAndHold) == DAC_SAMPLEANDHOLD_ENABLE)
1121:Drivers/STM32G4xx_HAL_Driver/Src/stm32g4xx_hal_dac.c ****   {
1122:Drivers/STM32G4xx_HAL_Driver/Src/stm32g4xx_hal_dac.c ****     assert_param(IS_DAC_SAMPLETIME(sConfig->DAC_SampleAndHoldConfig.DAC_SampleTime));
1123:Drivers/STM32G4xx_HAL_Driver/Src/stm32g4xx_hal_dac.c ****     assert_param(IS_DAC_HOLDTIME(sConfig->DAC_SampleAndHoldConfig.DAC_HoldTime));
1124:Drivers/STM32G4xx_HAL_Driver/Src/stm32g4xx_hal_dac.c ****     assert_param(IS_DAC_REFRESHTIME(sConfig->DAC_SampleAndHoldConfig.DAC_RefreshTime));
1125:Drivers/STM32G4xx_HAL_Driver/Src/stm32g4xx_hal_dac.c ****   }
1126:Drivers/STM32G4xx_HAL_Driver/Src/stm32g4xx_hal_dac.c ****   assert_param(IS_DAC_CHANNEL(hdac->Instance, Channel));
1127:Drivers/STM32G4xx_HAL_Driver/Src/stm32g4xx_hal_dac.c ****   assert_param(IS_FUNCTIONAL_STATE(sConfig->DAC_DMADoubleDataMode));
1128:Drivers/STM32G4xx_HAL_Driver/Src/stm32g4xx_hal_dac.c ****   assert_param(IS_FUNCTIONAL_STATE(sConfig->DAC_SignedFormat));
1129:Drivers/STM32G4xx_HAL_Driver/Src/stm32g4xx_hal_dac.c **** 
1130:Drivers/STM32G4xx_HAL_Driver/Src/stm32g4xx_hal_dac.c ****   /* Process locked */
1131:Drivers/STM32G4xx_HAL_Driver/Src/stm32g4xx_hal_dac.c ****   __HAL_LOCK(hdac);
1132:Drivers/STM32G4xx_HAL_Driver/Src/stm32g4xx_hal_dac.c **** 
1133:Drivers/STM32G4xx_HAL_Driver/Src/stm32g4xx_hal_dac.c ****   /* Change DAC state */
1134:Drivers/STM32G4xx_HAL_Driver/Src/stm32g4xx_hal_dac.c ****   hdac->State = HAL_DAC_STATE_BUSY;
1135:Drivers/STM32G4xx_HAL_Driver/Src/stm32g4xx_hal_dac.c **** 
1136:Drivers/STM32G4xx_HAL_Driver/Src/stm32g4xx_hal_dac.c ****   /* Sample and hold configuration */
1137:Drivers/STM32G4xx_HAL_Driver/Src/stm32g4xx_hal_dac.c ****   if (sConfig->DAC_SampleAndHold == DAC_SAMPLEANDHOLD_ENABLE)
1138:Drivers/STM32G4xx_HAL_Driver/Src/stm32g4xx_hal_dac.c ****   {
1139:Drivers/STM32G4xx_HAL_Driver/Src/stm32g4xx_hal_dac.c ****     /* Get timeout */
1140:Drivers/STM32G4xx_HAL_Driver/Src/stm32g4xx_hal_dac.c ****     tickstart = HAL_GetTick();
1141:Drivers/STM32G4xx_HAL_Driver/Src/stm32g4xx_hal_dac.c **** 
1142:Drivers/STM32G4xx_HAL_Driver/Src/stm32g4xx_hal_dac.c ****     if (Channel == DAC_CHANNEL_1)
1143:Drivers/STM32G4xx_HAL_Driver/Src/stm32g4xx_hal_dac.c ****     {
1144:Drivers/STM32G4xx_HAL_Driver/Src/stm32g4xx_hal_dac.c ****       /* SHSR1 can be written when BWST1 is cleared */
1145:Drivers/STM32G4xx_HAL_Driver/Src/stm32g4xx_hal_dac.c ****       while (((hdac->Instance->SR) & DAC_SR_BWST1) != 0UL)
1146:Drivers/STM32G4xx_HAL_Driver/Src/stm32g4xx_hal_dac.c ****       {
1147:Drivers/STM32G4xx_HAL_Driver/Src/stm32g4xx_hal_dac.c ****         /* Check for the Timeout */
1148:Drivers/STM32G4xx_HAL_Driver/Src/stm32g4xx_hal_dac.c ****         if ((HAL_GetTick() - tickstart) > TIMEOUT_DAC_CALIBCONFIG)
1149:Drivers/STM32G4xx_HAL_Driver/Src/stm32g4xx_hal_dac.c ****         {
1150:Drivers/STM32G4xx_HAL_Driver/Src/stm32g4xx_hal_dac.c ****           /* Update error code */
1151:Drivers/STM32G4xx_HAL_Driver/Src/stm32g4xx_hal_dac.c ****           SET_BIT(hdac->ErrorCode, HAL_DAC_ERROR_TIMEOUT);
1152:Drivers/STM32G4xx_HAL_Driver/Src/stm32g4xx_hal_dac.c **** 
1153:Drivers/STM32G4xx_HAL_Driver/Src/stm32g4xx_hal_dac.c ****           /* Change the DMA state */
1154:Drivers/STM32G4xx_HAL_Driver/Src/stm32g4xx_hal_dac.c ****           hdac->State = HAL_DAC_STATE_TIMEOUT;
1155:Drivers/STM32G4xx_HAL_Driver/Src/stm32g4xx_hal_dac.c **** 
1156:Drivers/STM32G4xx_HAL_Driver/Src/stm32g4xx_hal_dac.c ****           return HAL_TIMEOUT;
1157:Drivers/STM32G4xx_HAL_Driver/Src/stm32g4xx_hal_dac.c ****         }
1158:Drivers/STM32G4xx_HAL_Driver/Src/stm32g4xx_hal_dac.c ****       }
1159:Drivers/STM32G4xx_HAL_Driver/Src/stm32g4xx_hal_dac.c ****       HAL_Delay(1);
1160:Drivers/STM32G4xx_HAL_Driver/Src/stm32g4xx_hal_dac.c ****       hdac->Instance->SHSR1 = sConfig->DAC_SampleAndHoldConfig.DAC_SampleTime;
1161:Drivers/STM32G4xx_HAL_Driver/Src/stm32g4xx_hal_dac.c ****     }
1162:Drivers/STM32G4xx_HAL_Driver/Src/stm32g4xx_hal_dac.c **** 
1163:Drivers/STM32G4xx_HAL_Driver/Src/stm32g4xx_hal_dac.c ****     else /* Channel 2 */
1164:Drivers/STM32G4xx_HAL_Driver/Src/stm32g4xx_hal_dac.c ****     {
1165:Drivers/STM32G4xx_HAL_Driver/Src/stm32g4xx_hal_dac.c ****       /* SHSR2 can be written when BWST2 is cleared */
1166:Drivers/STM32G4xx_HAL_Driver/Src/stm32g4xx_hal_dac.c ****       while (((hdac->Instance->SR) & DAC_SR_BWST2) != 0UL)
1167:Drivers/STM32G4xx_HAL_Driver/Src/stm32g4xx_hal_dac.c ****       {
1168:Drivers/STM32G4xx_HAL_Driver/Src/stm32g4xx_hal_dac.c ****         /* Check for the Timeout */
1169:Drivers/STM32G4xx_HAL_Driver/Src/stm32g4xx_hal_dac.c ****         if ((HAL_GetTick() - tickstart) > TIMEOUT_DAC_CALIBCONFIG)
1170:Drivers/STM32G4xx_HAL_Driver/Src/stm32g4xx_hal_dac.c ****         {
1171:Drivers/STM32G4xx_HAL_Driver/Src/stm32g4xx_hal_dac.c ****           /* Update error code */
1172:Drivers/STM32G4xx_HAL_Driver/Src/stm32g4xx_hal_dac.c ****           SET_BIT(hdac->ErrorCode, HAL_DAC_ERROR_TIMEOUT);
1173:Drivers/STM32G4xx_HAL_Driver/Src/stm32g4xx_hal_dac.c **** 
1174:Drivers/STM32G4xx_HAL_Driver/Src/stm32g4xx_hal_dac.c ****           /* Change the DMA state */
ARM GAS  /tmp/cchITXCi.s 			page 38


1175:Drivers/STM32G4xx_HAL_Driver/Src/stm32g4xx_hal_dac.c ****           hdac->State = HAL_DAC_STATE_TIMEOUT;
1176:Drivers/STM32G4xx_HAL_Driver/Src/stm32g4xx_hal_dac.c **** 
1177:Drivers/STM32G4xx_HAL_Driver/Src/stm32g4xx_hal_dac.c ****           return HAL_TIMEOUT;
1178:Drivers/STM32G4xx_HAL_Driver/Src/stm32g4xx_hal_dac.c ****         }
1179:Drivers/STM32G4xx_HAL_Driver/Src/stm32g4xx_hal_dac.c ****       }
1180:Drivers/STM32G4xx_HAL_Driver/Src/stm32g4xx_hal_dac.c ****       HAL_Delay(1U);
1181:Drivers/STM32G4xx_HAL_Driver/Src/stm32g4xx_hal_dac.c ****       hdac->Instance->SHSR2 = sConfig->DAC_SampleAndHoldConfig.DAC_SampleTime;
1182:Drivers/STM32G4xx_HAL_Driver/Src/stm32g4xx_hal_dac.c ****     }
1183:Drivers/STM32G4xx_HAL_Driver/Src/stm32g4xx_hal_dac.c **** 
1184:Drivers/STM32G4xx_HAL_Driver/Src/stm32g4xx_hal_dac.c **** 
1185:Drivers/STM32G4xx_HAL_Driver/Src/stm32g4xx_hal_dac.c ****     /* HoldTime */
1186:Drivers/STM32G4xx_HAL_Driver/Src/stm32g4xx_hal_dac.c ****     MODIFY_REG(hdac->Instance->SHHR, DAC_SHHR_THOLD1 << (Channel & 0x10UL),
1187:Drivers/STM32G4xx_HAL_Driver/Src/stm32g4xx_hal_dac.c ****                (sConfig->DAC_SampleAndHoldConfig.DAC_HoldTime) << (Channel & 0x10UL));
1188:Drivers/STM32G4xx_HAL_Driver/Src/stm32g4xx_hal_dac.c ****     /* RefreshTime */
1189:Drivers/STM32G4xx_HAL_Driver/Src/stm32g4xx_hal_dac.c ****     MODIFY_REG(hdac->Instance->SHRR, DAC_SHRR_TREFRESH1 << (Channel & 0x10UL),
1190:Drivers/STM32G4xx_HAL_Driver/Src/stm32g4xx_hal_dac.c ****                (sConfig->DAC_SampleAndHoldConfig.DAC_RefreshTime) << (Channel & 0x10UL));
1191:Drivers/STM32G4xx_HAL_Driver/Src/stm32g4xx_hal_dac.c ****   }
1192:Drivers/STM32G4xx_HAL_Driver/Src/stm32g4xx_hal_dac.c **** 
1193:Drivers/STM32G4xx_HAL_Driver/Src/stm32g4xx_hal_dac.c ****   if (sConfig->DAC_UserTrimming == DAC_TRIMMING_USER)
1194:Drivers/STM32G4xx_HAL_Driver/Src/stm32g4xx_hal_dac.c ****     /* USER TRIMMING */
1195:Drivers/STM32G4xx_HAL_Driver/Src/stm32g4xx_hal_dac.c ****   {
1196:Drivers/STM32G4xx_HAL_Driver/Src/stm32g4xx_hal_dac.c ****     /* Get the DAC CCR value */
1197:Drivers/STM32G4xx_HAL_Driver/Src/stm32g4xx_hal_dac.c ****     tmpreg1 = hdac->Instance->CCR;
1198:Drivers/STM32G4xx_HAL_Driver/Src/stm32g4xx_hal_dac.c ****     /* Clear trimming value */
1199:Drivers/STM32G4xx_HAL_Driver/Src/stm32g4xx_hal_dac.c ****     tmpreg1 &= ~(((uint32_t)(DAC_CCR_OTRIM1)) << (Channel & 0x10UL));
1200:Drivers/STM32G4xx_HAL_Driver/Src/stm32g4xx_hal_dac.c ****     /* Configure for the selected trimming offset */
1201:Drivers/STM32G4xx_HAL_Driver/Src/stm32g4xx_hal_dac.c ****     tmpreg2 = sConfig->DAC_TrimmingValue;
1202:Drivers/STM32G4xx_HAL_Driver/Src/stm32g4xx_hal_dac.c ****     /* Calculate CCR register value depending on DAC_Channel */
1203:Drivers/STM32G4xx_HAL_Driver/Src/stm32g4xx_hal_dac.c ****     tmpreg1 |= tmpreg2 << (Channel & 0x10UL);
1204:Drivers/STM32G4xx_HAL_Driver/Src/stm32g4xx_hal_dac.c ****     /* Write to DAC CCR */
1205:Drivers/STM32G4xx_HAL_Driver/Src/stm32g4xx_hal_dac.c ****     hdac->Instance->CCR = tmpreg1;
1206:Drivers/STM32G4xx_HAL_Driver/Src/stm32g4xx_hal_dac.c ****   }
1207:Drivers/STM32G4xx_HAL_Driver/Src/stm32g4xx_hal_dac.c ****   /* else factory trimming is used (factory setting are available at reset)*/
1208:Drivers/STM32G4xx_HAL_Driver/Src/stm32g4xx_hal_dac.c ****   /* SW Nothing has nothing to do */
1209:Drivers/STM32G4xx_HAL_Driver/Src/stm32g4xx_hal_dac.c **** 
1210:Drivers/STM32G4xx_HAL_Driver/Src/stm32g4xx_hal_dac.c ****   /* Get the DAC MCR value */
1211:Drivers/STM32G4xx_HAL_Driver/Src/stm32g4xx_hal_dac.c ****   tmpreg1 = hdac->Instance->MCR;
1212:Drivers/STM32G4xx_HAL_Driver/Src/stm32g4xx_hal_dac.c ****   /* Clear DAC_MCR_MODEx bits */
1213:Drivers/STM32G4xx_HAL_Driver/Src/stm32g4xx_hal_dac.c ****   tmpreg1 &= ~(((uint32_t)(DAC_MCR_MODE1)) << (Channel & 0x10UL));
1214:Drivers/STM32G4xx_HAL_Driver/Src/stm32g4xx_hal_dac.c ****   /* Configure for the selected DAC channel: mode, buffer output & on chip peripheral connect */
1215:Drivers/STM32G4xx_HAL_Driver/Src/stm32g4xx_hal_dac.c ****   if (sConfig->DAC_ConnectOnChipPeripheral == DAC_CHIPCONNECT_EXTERNAL)
1216:Drivers/STM32G4xx_HAL_Driver/Src/stm32g4xx_hal_dac.c ****   {
1217:Drivers/STM32G4xx_HAL_Driver/Src/stm32g4xx_hal_dac.c ****     connectOnChip = 0x00000000UL;
1218:Drivers/STM32G4xx_HAL_Driver/Src/stm32g4xx_hal_dac.c ****   }
1219:Drivers/STM32G4xx_HAL_Driver/Src/stm32g4xx_hal_dac.c ****   else if (sConfig->DAC_ConnectOnChipPeripheral == DAC_CHIPCONNECT_INTERNAL)
1220:Drivers/STM32G4xx_HAL_Driver/Src/stm32g4xx_hal_dac.c ****   {
1221:Drivers/STM32G4xx_HAL_Driver/Src/stm32g4xx_hal_dac.c ****     connectOnChip = DAC_MCR_MODE1_0;
1222:Drivers/STM32G4xx_HAL_Driver/Src/stm32g4xx_hal_dac.c ****   }
1223:Drivers/STM32G4xx_HAL_Driver/Src/stm32g4xx_hal_dac.c ****   else /* (sConfig->DAC_ConnectOnChipPeripheral == DAC_CHIPCONNECT_BOTH) */
1224:Drivers/STM32G4xx_HAL_Driver/Src/stm32g4xx_hal_dac.c ****   {
1225:Drivers/STM32G4xx_HAL_Driver/Src/stm32g4xx_hal_dac.c ****     if (sConfig->DAC_OutputBuffer == DAC_OUTPUTBUFFER_ENABLE)
1226:Drivers/STM32G4xx_HAL_Driver/Src/stm32g4xx_hal_dac.c ****     {
1227:Drivers/STM32G4xx_HAL_Driver/Src/stm32g4xx_hal_dac.c ****       connectOnChip = DAC_MCR_MODE1_0;
1228:Drivers/STM32G4xx_HAL_Driver/Src/stm32g4xx_hal_dac.c ****     }
1229:Drivers/STM32G4xx_HAL_Driver/Src/stm32g4xx_hal_dac.c ****     else
1230:Drivers/STM32G4xx_HAL_Driver/Src/stm32g4xx_hal_dac.c ****     {
1231:Drivers/STM32G4xx_HAL_Driver/Src/stm32g4xx_hal_dac.c ****       connectOnChip = 0x00000000UL;
ARM GAS  /tmp/cchITXCi.s 			page 39


1232:Drivers/STM32G4xx_HAL_Driver/Src/stm32g4xx_hal_dac.c ****     }
1233:Drivers/STM32G4xx_HAL_Driver/Src/stm32g4xx_hal_dac.c ****   }
1234:Drivers/STM32G4xx_HAL_Driver/Src/stm32g4xx_hal_dac.c ****   tmpreg2 = (sConfig->DAC_SampleAndHold | sConfig->DAC_OutputBuffer | connectOnChip);
1235:Drivers/STM32G4xx_HAL_Driver/Src/stm32g4xx_hal_dac.c ****   /* Clear DAC_MCR_DMADOUBLEx */
1236:Drivers/STM32G4xx_HAL_Driver/Src/stm32g4xx_hal_dac.c ****   tmpreg1 &= ~(((uint32_t)(DAC_MCR_DMADOUBLE1)) << (Channel & 0x10UL));
1237:Drivers/STM32G4xx_HAL_Driver/Src/stm32g4xx_hal_dac.c ****   /* Configure for the selected DAC channel: DMA double data mode */
1238:Drivers/STM32G4xx_HAL_Driver/Src/stm32g4xx_hal_dac.c ****   tmpreg2 |= (sConfig->DAC_DMADoubleDataMode == ENABLE) ? DAC_MCR_DMADOUBLE1 : 0UL;
1239:Drivers/STM32G4xx_HAL_Driver/Src/stm32g4xx_hal_dac.c ****   /* Clear DAC_MCR_SINFORMATx */
1240:Drivers/STM32G4xx_HAL_Driver/Src/stm32g4xx_hal_dac.c ****   tmpreg1 &= ~(((uint32_t)(DAC_MCR_SINFORMAT1)) << (Channel & 0x10UL));
1241:Drivers/STM32G4xx_HAL_Driver/Src/stm32g4xx_hal_dac.c ****   /* Configure for the selected DAC channel: Signed format */
1242:Drivers/STM32G4xx_HAL_Driver/Src/stm32g4xx_hal_dac.c ****   tmpreg2 |= (sConfig->DAC_SignedFormat == ENABLE) ? DAC_MCR_SINFORMAT1 : 0UL;
1243:Drivers/STM32G4xx_HAL_Driver/Src/stm32g4xx_hal_dac.c ****   /* Clear DAC_MCR_HFSEL bits */
1244:Drivers/STM32G4xx_HAL_Driver/Src/stm32g4xx_hal_dac.c ****   tmpreg1 &= ~(DAC_MCR_HFSEL);
1245:Drivers/STM32G4xx_HAL_Driver/Src/stm32g4xx_hal_dac.c ****   /* Configure for both DAC channels: high frequency mode */
1246:Drivers/STM32G4xx_HAL_Driver/Src/stm32g4xx_hal_dac.c ****   if (DAC_HIGH_FREQUENCY_INTERFACE_MODE_AUTOMATIC == sConfig->DAC_HighFrequency)
1247:Drivers/STM32G4xx_HAL_Driver/Src/stm32g4xx_hal_dac.c ****   {
1248:Drivers/STM32G4xx_HAL_Driver/Src/stm32g4xx_hal_dac.c ****     hclkfreq = HAL_RCC_GetHCLKFreq();
1249:Drivers/STM32G4xx_HAL_Driver/Src/stm32g4xx_hal_dac.c ****     if (hclkfreq > HFSEL_ENABLE_THRESHOLD_160MHZ)
1250:Drivers/STM32G4xx_HAL_Driver/Src/stm32g4xx_hal_dac.c ****     {
1251:Drivers/STM32G4xx_HAL_Driver/Src/stm32g4xx_hal_dac.c ****       tmpreg1 |= DAC_HIGH_FREQUENCY_INTERFACE_MODE_ABOVE_160MHZ;
1252:Drivers/STM32G4xx_HAL_Driver/Src/stm32g4xx_hal_dac.c ****     }
1253:Drivers/STM32G4xx_HAL_Driver/Src/stm32g4xx_hal_dac.c ****     else if (hclkfreq > HFSEL_ENABLE_THRESHOLD_80MHZ)
1254:Drivers/STM32G4xx_HAL_Driver/Src/stm32g4xx_hal_dac.c ****     {
1255:Drivers/STM32G4xx_HAL_Driver/Src/stm32g4xx_hal_dac.c ****       tmpreg1 |= DAC_HIGH_FREQUENCY_INTERFACE_MODE_ABOVE_80MHZ;
1256:Drivers/STM32G4xx_HAL_Driver/Src/stm32g4xx_hal_dac.c ****     }
1257:Drivers/STM32G4xx_HAL_Driver/Src/stm32g4xx_hal_dac.c ****     else
1258:Drivers/STM32G4xx_HAL_Driver/Src/stm32g4xx_hal_dac.c ****     {
1259:Drivers/STM32G4xx_HAL_Driver/Src/stm32g4xx_hal_dac.c ****       tmpreg1 |= DAC_HIGH_FREQUENCY_INTERFACE_MODE_DISABLE;
1260:Drivers/STM32G4xx_HAL_Driver/Src/stm32g4xx_hal_dac.c ****     }
1261:Drivers/STM32G4xx_HAL_Driver/Src/stm32g4xx_hal_dac.c ****   }
1262:Drivers/STM32G4xx_HAL_Driver/Src/stm32g4xx_hal_dac.c ****   else
1263:Drivers/STM32G4xx_HAL_Driver/Src/stm32g4xx_hal_dac.c ****   {
1264:Drivers/STM32G4xx_HAL_Driver/Src/stm32g4xx_hal_dac.c ****     tmpreg1 |= sConfig->DAC_HighFrequency;
1265:Drivers/STM32G4xx_HAL_Driver/Src/stm32g4xx_hal_dac.c ****   }
1266:Drivers/STM32G4xx_HAL_Driver/Src/stm32g4xx_hal_dac.c ****   /* Calculate MCR register value depending on DAC_Channel */
1267:Drivers/STM32G4xx_HAL_Driver/Src/stm32g4xx_hal_dac.c ****   tmpreg1 |= tmpreg2 << (Channel & 0x10UL);
1268:Drivers/STM32G4xx_HAL_Driver/Src/stm32g4xx_hal_dac.c ****   /* Write to DAC MCR */
1269:Drivers/STM32G4xx_HAL_Driver/Src/stm32g4xx_hal_dac.c ****   hdac->Instance->MCR = tmpreg1;
1270:Drivers/STM32G4xx_HAL_Driver/Src/stm32g4xx_hal_dac.c **** 
1271:Drivers/STM32G4xx_HAL_Driver/Src/stm32g4xx_hal_dac.c ****   /* DAC in normal operating mode hence clear DAC_CR_CENx bit */
1272:Drivers/STM32G4xx_HAL_Driver/Src/stm32g4xx_hal_dac.c ****   CLEAR_BIT(hdac->Instance->CR, DAC_CR_CEN1 << (Channel & 0x10UL));
1273:Drivers/STM32G4xx_HAL_Driver/Src/stm32g4xx_hal_dac.c **** 
1274:Drivers/STM32G4xx_HAL_Driver/Src/stm32g4xx_hal_dac.c ****   /* Get the DAC CR value */
1275:Drivers/STM32G4xx_HAL_Driver/Src/stm32g4xx_hal_dac.c ****   tmpreg1 = hdac->Instance->CR;
1276:Drivers/STM32G4xx_HAL_Driver/Src/stm32g4xx_hal_dac.c ****   /* Clear TENx, TSELx, WAVEx and MAMPx bits */
1277:Drivers/STM32G4xx_HAL_Driver/Src/stm32g4xx_hal_dac.c ****   tmpreg1 &= ~(((uint32_t)(DAC_CR_MAMP1 | DAC_CR_WAVE1 | DAC_CR_TSEL1 | DAC_CR_TEN1)) << (Channel &
1278:Drivers/STM32G4xx_HAL_Driver/Src/stm32g4xx_hal_dac.c ****   /* Configure for the selected DAC channel: trigger */
1279:Drivers/STM32G4xx_HAL_Driver/Src/stm32g4xx_hal_dac.c ****   /* Set TSELx and TENx bits according to DAC_Trigger value */
1280:Drivers/STM32G4xx_HAL_Driver/Src/stm32g4xx_hal_dac.c ****   tmpreg2 = sConfig->DAC_Trigger;
1281:Drivers/STM32G4xx_HAL_Driver/Src/stm32g4xx_hal_dac.c ****   /* Calculate CR register value depending on DAC_Channel */
1282:Drivers/STM32G4xx_HAL_Driver/Src/stm32g4xx_hal_dac.c ****   tmpreg1 |= tmpreg2 << (Channel & 0x10UL);
1283:Drivers/STM32G4xx_HAL_Driver/Src/stm32g4xx_hal_dac.c ****   /* Write to DAC CR */
1284:Drivers/STM32G4xx_HAL_Driver/Src/stm32g4xx_hal_dac.c ****   hdac->Instance->CR = tmpreg1;
1285:Drivers/STM32G4xx_HAL_Driver/Src/stm32g4xx_hal_dac.c ****   /* Disable wave generation */
1286:Drivers/STM32G4xx_HAL_Driver/Src/stm32g4xx_hal_dac.c ****   CLEAR_BIT(hdac->Instance->CR, (DAC_CR_WAVE1 << (Channel & 0x10UL)));
1287:Drivers/STM32G4xx_HAL_Driver/Src/stm32g4xx_hal_dac.c **** 
1288:Drivers/STM32G4xx_HAL_Driver/Src/stm32g4xx_hal_dac.c ****   /* Set STRSTTRIGSELx and STINCTRIGSELx bits according to DAC_Trigger & DAC_Trigger2 values */
ARM GAS  /tmp/cchITXCi.s 			page 40


1289:Drivers/STM32G4xx_HAL_Driver/Src/stm32g4xx_hal_dac.c ****   tmpreg2 = ((sConfig->DAC_Trigger & DAC_CR_TSEL1) >> DAC_CR_TSEL1_Pos) << DAC_STMODR_STRSTTRIGSEL1
1290:Drivers/STM32G4xx_HAL_Driver/Src/stm32g4xx_hal_dac.c ****   tmpreg2 |= ((sConfig->DAC_Trigger2 & DAC_CR_TSEL1) >> DAC_CR_TSEL1_Pos) << DAC_STMODR_STINCTRIGSE
1291:Drivers/STM32G4xx_HAL_Driver/Src/stm32g4xx_hal_dac.c ****   /* Modify STMODR register value depending on DAC_Channel */
1292:Drivers/STM32G4xx_HAL_Driver/Src/stm32g4xx_hal_dac.c ****   MODIFY_REG(hdac->Instance->STMODR, (DAC_STMODR_STINCTRIGSEL1 | DAC_STMODR_STRSTTRIGSEL1) << (Chan
1293:Drivers/STM32G4xx_HAL_Driver/Src/stm32g4xx_hal_dac.c ****   /* Change DAC state */
1294:Drivers/STM32G4xx_HAL_Driver/Src/stm32g4xx_hal_dac.c ****   hdac->State = HAL_DAC_STATE_READY;
1295:Drivers/STM32G4xx_HAL_Driver/Src/stm32g4xx_hal_dac.c **** 
1296:Drivers/STM32G4xx_HAL_Driver/Src/stm32g4xx_hal_dac.c ****   /* Process unlocked */
1297:Drivers/STM32G4xx_HAL_Driver/Src/stm32g4xx_hal_dac.c ****   __HAL_UNLOCK(hdac);
1298:Drivers/STM32G4xx_HAL_Driver/Src/stm32g4xx_hal_dac.c **** 
1299:Drivers/STM32G4xx_HAL_Driver/Src/stm32g4xx_hal_dac.c ****   /* Return function status */
1300:Drivers/STM32G4xx_HAL_Driver/Src/stm32g4xx_hal_dac.c ****   return HAL_OK;
1301:Drivers/STM32G4xx_HAL_Driver/Src/stm32g4xx_hal_dac.c **** }
1302:Drivers/STM32G4xx_HAL_Driver/Src/stm32g4xx_hal_dac.c **** 
1303:Drivers/STM32G4xx_HAL_Driver/Src/stm32g4xx_hal_dac.c **** /**
1304:Drivers/STM32G4xx_HAL_Driver/Src/stm32g4xx_hal_dac.c ****   * @}
1305:Drivers/STM32G4xx_HAL_Driver/Src/stm32g4xx_hal_dac.c ****   */
1306:Drivers/STM32G4xx_HAL_Driver/Src/stm32g4xx_hal_dac.c **** 
1307:Drivers/STM32G4xx_HAL_Driver/Src/stm32g4xx_hal_dac.c **** /** @defgroup DAC_Exported_Functions_Group4 Peripheral State and Errors functions
1308:Drivers/STM32G4xx_HAL_Driver/Src/stm32g4xx_hal_dac.c ****   *  @brief   Peripheral State and Errors functions
1309:Drivers/STM32G4xx_HAL_Driver/Src/stm32g4xx_hal_dac.c ****   *
1310:Drivers/STM32G4xx_HAL_Driver/Src/stm32g4xx_hal_dac.c **** @verbatim
1311:Drivers/STM32G4xx_HAL_Driver/Src/stm32g4xx_hal_dac.c ****   ==============================================================================
1312:Drivers/STM32G4xx_HAL_Driver/Src/stm32g4xx_hal_dac.c ****             ##### Peripheral State and Errors functions #####
1313:Drivers/STM32G4xx_HAL_Driver/Src/stm32g4xx_hal_dac.c ****   ==============================================================================
1314:Drivers/STM32G4xx_HAL_Driver/Src/stm32g4xx_hal_dac.c ****     [..]
1315:Drivers/STM32G4xx_HAL_Driver/Src/stm32g4xx_hal_dac.c ****     This subsection provides functions allowing to
1316:Drivers/STM32G4xx_HAL_Driver/Src/stm32g4xx_hal_dac.c ****       (+) Check the DAC state.
1317:Drivers/STM32G4xx_HAL_Driver/Src/stm32g4xx_hal_dac.c ****       (+) Check the DAC Errors.
1318:Drivers/STM32G4xx_HAL_Driver/Src/stm32g4xx_hal_dac.c **** 
1319:Drivers/STM32G4xx_HAL_Driver/Src/stm32g4xx_hal_dac.c **** @endverbatim
1320:Drivers/STM32G4xx_HAL_Driver/Src/stm32g4xx_hal_dac.c ****   * @{
1321:Drivers/STM32G4xx_HAL_Driver/Src/stm32g4xx_hal_dac.c ****   */
1322:Drivers/STM32G4xx_HAL_Driver/Src/stm32g4xx_hal_dac.c **** 
1323:Drivers/STM32G4xx_HAL_Driver/Src/stm32g4xx_hal_dac.c **** /**
1324:Drivers/STM32G4xx_HAL_Driver/Src/stm32g4xx_hal_dac.c ****   * @brief  return the DAC handle state
1325:Drivers/STM32G4xx_HAL_Driver/Src/stm32g4xx_hal_dac.c ****   * @param  hdac pointer to a DAC_HandleTypeDef structure that contains
1326:Drivers/STM32G4xx_HAL_Driver/Src/stm32g4xx_hal_dac.c ****   *         the configuration information for the specified DAC.
1327:Drivers/STM32G4xx_HAL_Driver/Src/stm32g4xx_hal_dac.c ****   * @retval HAL state
1328:Drivers/STM32G4xx_HAL_Driver/Src/stm32g4xx_hal_dac.c ****   */
1329:Drivers/STM32G4xx_HAL_Driver/Src/stm32g4xx_hal_dac.c **** HAL_DAC_StateTypeDef HAL_DAC_GetState(DAC_HandleTypeDef *hdac)
1330:Drivers/STM32G4xx_HAL_Driver/Src/stm32g4xx_hal_dac.c **** {
1331:Drivers/STM32G4xx_HAL_Driver/Src/stm32g4xx_hal_dac.c ****   /* Return DAC handle state */
1332:Drivers/STM32G4xx_HAL_Driver/Src/stm32g4xx_hal_dac.c ****   return hdac->State;
1333:Drivers/STM32G4xx_HAL_Driver/Src/stm32g4xx_hal_dac.c **** }
1334:Drivers/STM32G4xx_HAL_Driver/Src/stm32g4xx_hal_dac.c **** 
1335:Drivers/STM32G4xx_HAL_Driver/Src/stm32g4xx_hal_dac.c **** 
1336:Drivers/STM32G4xx_HAL_Driver/Src/stm32g4xx_hal_dac.c **** /**
1337:Drivers/STM32G4xx_HAL_Driver/Src/stm32g4xx_hal_dac.c ****   * @brief  Return the DAC error code
1338:Drivers/STM32G4xx_HAL_Driver/Src/stm32g4xx_hal_dac.c ****   * @param  hdac pointer to a DAC_HandleTypeDef structure that contains
1339:Drivers/STM32G4xx_HAL_Driver/Src/stm32g4xx_hal_dac.c ****   *         the configuration information for the specified DAC.
1340:Drivers/STM32G4xx_HAL_Driver/Src/stm32g4xx_hal_dac.c ****   * @retval DAC Error Code
1341:Drivers/STM32G4xx_HAL_Driver/Src/stm32g4xx_hal_dac.c ****   */
1342:Drivers/STM32G4xx_HAL_Driver/Src/stm32g4xx_hal_dac.c **** uint32_t HAL_DAC_GetError(DAC_HandleTypeDef *hdac)
1343:Drivers/STM32G4xx_HAL_Driver/Src/stm32g4xx_hal_dac.c **** {
1344:Drivers/STM32G4xx_HAL_Driver/Src/stm32g4xx_hal_dac.c ****   return hdac->ErrorCode;
1345:Drivers/STM32G4xx_HAL_Driver/Src/stm32g4xx_hal_dac.c **** }
ARM GAS  /tmp/cchITXCi.s 			page 41


1346:Drivers/STM32G4xx_HAL_Driver/Src/stm32g4xx_hal_dac.c **** 
1347:Drivers/STM32G4xx_HAL_Driver/Src/stm32g4xx_hal_dac.c **** /**
1348:Drivers/STM32G4xx_HAL_Driver/Src/stm32g4xx_hal_dac.c ****   * @}
1349:Drivers/STM32G4xx_HAL_Driver/Src/stm32g4xx_hal_dac.c ****   */
1350:Drivers/STM32G4xx_HAL_Driver/Src/stm32g4xx_hal_dac.c **** 
1351:Drivers/STM32G4xx_HAL_Driver/Src/stm32g4xx_hal_dac.c **** /**
1352:Drivers/STM32G4xx_HAL_Driver/Src/stm32g4xx_hal_dac.c ****   * @}
1353:Drivers/STM32G4xx_HAL_Driver/Src/stm32g4xx_hal_dac.c ****   */
1354:Drivers/STM32G4xx_HAL_Driver/Src/stm32g4xx_hal_dac.c **** 
1355:Drivers/STM32G4xx_HAL_Driver/Src/stm32g4xx_hal_dac.c **** /** @addtogroup DAC_Exported_Functions
1356:Drivers/STM32G4xx_HAL_Driver/Src/stm32g4xx_hal_dac.c ****   * @{
1357:Drivers/STM32G4xx_HAL_Driver/Src/stm32g4xx_hal_dac.c ****   */
1358:Drivers/STM32G4xx_HAL_Driver/Src/stm32g4xx_hal_dac.c **** 
1359:Drivers/STM32G4xx_HAL_Driver/Src/stm32g4xx_hal_dac.c **** /** @addtogroup DAC_Exported_Functions_Group1
1360:Drivers/STM32G4xx_HAL_Driver/Src/stm32g4xx_hal_dac.c ****   * @{
1361:Drivers/STM32G4xx_HAL_Driver/Src/stm32g4xx_hal_dac.c ****   */
1362:Drivers/STM32G4xx_HAL_Driver/Src/stm32g4xx_hal_dac.c **** #if (USE_HAL_DAC_REGISTER_CALLBACKS == 1)
1363:Drivers/STM32G4xx_HAL_Driver/Src/stm32g4xx_hal_dac.c **** /**
1364:Drivers/STM32G4xx_HAL_Driver/Src/stm32g4xx_hal_dac.c ****   * @brief  Register a User DAC Callback
1365:Drivers/STM32G4xx_HAL_Driver/Src/stm32g4xx_hal_dac.c ****   *         To be used instead of the weak (surcharged) predefined callback
1366:Drivers/STM32G4xx_HAL_Driver/Src/stm32g4xx_hal_dac.c ****   * @param  hdac DAC handle
1367:Drivers/STM32G4xx_HAL_Driver/Src/stm32g4xx_hal_dac.c ****   * @param  CallbackID ID of the callback to be registered
1368:Drivers/STM32G4xx_HAL_Driver/Src/stm32g4xx_hal_dac.c ****   *         This parameter can be one of the following values:
1369:Drivers/STM32G4xx_HAL_Driver/Src/stm32g4xx_hal_dac.c ****   *          @arg @ref HAL_DAC_ERROR_INVALID_CALLBACK   DAC Error Callback ID
1370:Drivers/STM32G4xx_HAL_Driver/Src/stm32g4xx_hal_dac.c ****   *          @arg @ref HAL_DAC_CH1_COMPLETE_CB_ID       DAC CH1 Complete Callback ID
1371:Drivers/STM32G4xx_HAL_Driver/Src/stm32g4xx_hal_dac.c ****   *          @arg @ref HAL_DAC_CH1_HALF_COMPLETE_CB_ID  DAC CH1 Half Complete Callback ID
1372:Drivers/STM32G4xx_HAL_Driver/Src/stm32g4xx_hal_dac.c ****   *          @arg @ref HAL_DAC_CH1_ERROR_ID             DAC CH1 Error Callback ID
1373:Drivers/STM32G4xx_HAL_Driver/Src/stm32g4xx_hal_dac.c ****   *          @arg @ref HAL_DAC_CH1_UNDERRUN_CB_ID       DAC CH1 UnderRun Callback ID
1374:Drivers/STM32G4xx_HAL_Driver/Src/stm32g4xx_hal_dac.c ****   *          @arg @ref HAL_DAC_CH2_COMPLETE_CB_ID       DAC CH2 Complete Callback ID
1375:Drivers/STM32G4xx_HAL_Driver/Src/stm32g4xx_hal_dac.c ****   *          @arg @ref HAL_DAC_CH2_HALF_COMPLETE_CB_ID  DAC CH2 Half Complete Callback ID
1376:Drivers/STM32G4xx_HAL_Driver/Src/stm32g4xx_hal_dac.c ****   *          @arg @ref HAL_DAC_CH2_ERROR_ID             DAC CH2 Error Callback ID
1377:Drivers/STM32G4xx_HAL_Driver/Src/stm32g4xx_hal_dac.c ****   *          @arg @ref HAL_DAC_CH2_UNDERRUN_CB_ID       DAC CH2 UnderRun Callback ID
1378:Drivers/STM32G4xx_HAL_Driver/Src/stm32g4xx_hal_dac.c ****   *          @arg @ref HAL_DAC_MSPINIT_CB_ID            DAC MSP Init Callback ID
1379:Drivers/STM32G4xx_HAL_Driver/Src/stm32g4xx_hal_dac.c ****   *          @arg @ref HAL_DAC_MSPDEINIT_CB_ID          DAC MSP DeInit Callback ID
1380:Drivers/STM32G4xx_HAL_Driver/Src/stm32g4xx_hal_dac.c ****   *
1381:Drivers/STM32G4xx_HAL_Driver/Src/stm32g4xx_hal_dac.c ****   * @param  pCallback pointer to the Callback function
1382:Drivers/STM32G4xx_HAL_Driver/Src/stm32g4xx_hal_dac.c ****   * @retval status
1383:Drivers/STM32G4xx_HAL_Driver/Src/stm32g4xx_hal_dac.c ****   */
1384:Drivers/STM32G4xx_HAL_Driver/Src/stm32g4xx_hal_dac.c **** HAL_StatusTypeDef HAL_DAC_RegisterCallback(DAC_HandleTypeDef *hdac, HAL_DAC_CallbackIDTypeDef Callb
1385:Drivers/STM32G4xx_HAL_Driver/Src/stm32g4xx_hal_dac.c ****                                            pDAC_CallbackTypeDef pCallback)
1386:Drivers/STM32G4xx_HAL_Driver/Src/stm32g4xx_hal_dac.c **** {
1387:Drivers/STM32G4xx_HAL_Driver/Src/stm32g4xx_hal_dac.c ****   HAL_StatusTypeDef status = HAL_OK;
1388:Drivers/STM32G4xx_HAL_Driver/Src/stm32g4xx_hal_dac.c **** 
1389:Drivers/STM32G4xx_HAL_Driver/Src/stm32g4xx_hal_dac.c ****   if (pCallback == NULL)
1390:Drivers/STM32G4xx_HAL_Driver/Src/stm32g4xx_hal_dac.c ****   {
1391:Drivers/STM32G4xx_HAL_Driver/Src/stm32g4xx_hal_dac.c ****     /* Update the error code */
1392:Drivers/STM32G4xx_HAL_Driver/Src/stm32g4xx_hal_dac.c ****     hdac->ErrorCode |= HAL_DAC_ERROR_INVALID_CALLBACK;
1393:Drivers/STM32G4xx_HAL_Driver/Src/stm32g4xx_hal_dac.c ****     return HAL_ERROR;
1394:Drivers/STM32G4xx_HAL_Driver/Src/stm32g4xx_hal_dac.c ****   }
1395:Drivers/STM32G4xx_HAL_Driver/Src/stm32g4xx_hal_dac.c **** 
1396:Drivers/STM32G4xx_HAL_Driver/Src/stm32g4xx_hal_dac.c ****   /* Process locked */
1397:Drivers/STM32G4xx_HAL_Driver/Src/stm32g4xx_hal_dac.c ****   __HAL_LOCK(hdac);
1398:Drivers/STM32G4xx_HAL_Driver/Src/stm32g4xx_hal_dac.c **** 
1399:Drivers/STM32G4xx_HAL_Driver/Src/stm32g4xx_hal_dac.c ****   if (hdac->State == HAL_DAC_STATE_READY)
1400:Drivers/STM32G4xx_HAL_Driver/Src/stm32g4xx_hal_dac.c ****   {
1401:Drivers/STM32G4xx_HAL_Driver/Src/stm32g4xx_hal_dac.c ****     switch (CallbackID)
1402:Drivers/STM32G4xx_HAL_Driver/Src/stm32g4xx_hal_dac.c ****     {
ARM GAS  /tmp/cchITXCi.s 			page 42


1403:Drivers/STM32G4xx_HAL_Driver/Src/stm32g4xx_hal_dac.c ****       case HAL_DAC_CH1_COMPLETE_CB_ID :
1404:Drivers/STM32G4xx_HAL_Driver/Src/stm32g4xx_hal_dac.c ****         hdac->ConvCpltCallbackCh1 = pCallback;
1405:Drivers/STM32G4xx_HAL_Driver/Src/stm32g4xx_hal_dac.c ****         break;
1406:Drivers/STM32G4xx_HAL_Driver/Src/stm32g4xx_hal_dac.c ****       case HAL_DAC_CH1_HALF_COMPLETE_CB_ID :
1407:Drivers/STM32G4xx_HAL_Driver/Src/stm32g4xx_hal_dac.c ****         hdac->ConvHalfCpltCallbackCh1 = pCallback;
1408:Drivers/STM32G4xx_HAL_Driver/Src/stm32g4xx_hal_dac.c ****         break;
1409:Drivers/STM32G4xx_HAL_Driver/Src/stm32g4xx_hal_dac.c ****       case HAL_DAC_CH1_ERROR_ID :
1410:Drivers/STM32G4xx_HAL_Driver/Src/stm32g4xx_hal_dac.c ****         hdac->ErrorCallbackCh1 = pCallback;
1411:Drivers/STM32G4xx_HAL_Driver/Src/stm32g4xx_hal_dac.c ****         break;
1412:Drivers/STM32G4xx_HAL_Driver/Src/stm32g4xx_hal_dac.c ****       case HAL_DAC_CH1_UNDERRUN_CB_ID :
1413:Drivers/STM32G4xx_HAL_Driver/Src/stm32g4xx_hal_dac.c ****         hdac->DMAUnderrunCallbackCh1 = pCallback;
1414:Drivers/STM32G4xx_HAL_Driver/Src/stm32g4xx_hal_dac.c ****         break;
1415:Drivers/STM32G4xx_HAL_Driver/Src/stm32g4xx_hal_dac.c **** 
1416:Drivers/STM32G4xx_HAL_Driver/Src/stm32g4xx_hal_dac.c ****       case HAL_DAC_CH2_COMPLETE_CB_ID :
1417:Drivers/STM32G4xx_HAL_Driver/Src/stm32g4xx_hal_dac.c ****         hdac->ConvCpltCallbackCh2 = pCallback;
1418:Drivers/STM32G4xx_HAL_Driver/Src/stm32g4xx_hal_dac.c ****         break;
1419:Drivers/STM32G4xx_HAL_Driver/Src/stm32g4xx_hal_dac.c ****       case HAL_DAC_CH2_HALF_COMPLETE_CB_ID :
1420:Drivers/STM32G4xx_HAL_Driver/Src/stm32g4xx_hal_dac.c ****         hdac->ConvHalfCpltCallbackCh2 = pCallback;
1421:Drivers/STM32G4xx_HAL_Driver/Src/stm32g4xx_hal_dac.c ****         break;
1422:Drivers/STM32G4xx_HAL_Driver/Src/stm32g4xx_hal_dac.c ****       case HAL_DAC_CH2_ERROR_ID :
1423:Drivers/STM32G4xx_HAL_Driver/Src/stm32g4xx_hal_dac.c ****         hdac->ErrorCallbackCh2 = pCallback;
1424:Drivers/STM32G4xx_HAL_Driver/Src/stm32g4xx_hal_dac.c ****         break;
1425:Drivers/STM32G4xx_HAL_Driver/Src/stm32g4xx_hal_dac.c ****       case HAL_DAC_CH2_UNDERRUN_CB_ID :
1426:Drivers/STM32G4xx_HAL_Driver/Src/stm32g4xx_hal_dac.c ****         hdac->DMAUnderrunCallbackCh2 = pCallback;
1427:Drivers/STM32G4xx_HAL_Driver/Src/stm32g4xx_hal_dac.c ****         break;
1428:Drivers/STM32G4xx_HAL_Driver/Src/stm32g4xx_hal_dac.c **** 
1429:Drivers/STM32G4xx_HAL_Driver/Src/stm32g4xx_hal_dac.c ****       case HAL_DAC_MSPINIT_CB_ID :
1430:Drivers/STM32G4xx_HAL_Driver/Src/stm32g4xx_hal_dac.c ****         hdac->MspInitCallback = pCallback;
1431:Drivers/STM32G4xx_HAL_Driver/Src/stm32g4xx_hal_dac.c ****         break;
1432:Drivers/STM32G4xx_HAL_Driver/Src/stm32g4xx_hal_dac.c ****       case HAL_DAC_MSPDEINIT_CB_ID :
1433:Drivers/STM32G4xx_HAL_Driver/Src/stm32g4xx_hal_dac.c ****         hdac->MspDeInitCallback = pCallback;
1434:Drivers/STM32G4xx_HAL_Driver/Src/stm32g4xx_hal_dac.c ****         break;
1435:Drivers/STM32G4xx_HAL_Driver/Src/stm32g4xx_hal_dac.c ****       default :
1436:Drivers/STM32G4xx_HAL_Driver/Src/stm32g4xx_hal_dac.c ****         /* Update the error code */
1437:Drivers/STM32G4xx_HAL_Driver/Src/stm32g4xx_hal_dac.c ****         hdac->ErrorCode |= HAL_DAC_ERROR_INVALID_CALLBACK;
1438:Drivers/STM32G4xx_HAL_Driver/Src/stm32g4xx_hal_dac.c ****         /* update return status */
1439:Drivers/STM32G4xx_HAL_Driver/Src/stm32g4xx_hal_dac.c ****         status =  HAL_ERROR;
1440:Drivers/STM32G4xx_HAL_Driver/Src/stm32g4xx_hal_dac.c ****         break;
1441:Drivers/STM32G4xx_HAL_Driver/Src/stm32g4xx_hal_dac.c ****     }
1442:Drivers/STM32G4xx_HAL_Driver/Src/stm32g4xx_hal_dac.c ****   }
1443:Drivers/STM32G4xx_HAL_Driver/Src/stm32g4xx_hal_dac.c ****   else if (hdac->State == HAL_DAC_STATE_RESET)
1444:Drivers/STM32G4xx_HAL_Driver/Src/stm32g4xx_hal_dac.c ****   {
1445:Drivers/STM32G4xx_HAL_Driver/Src/stm32g4xx_hal_dac.c ****     switch (CallbackID)
1446:Drivers/STM32G4xx_HAL_Driver/Src/stm32g4xx_hal_dac.c ****     {
1447:Drivers/STM32G4xx_HAL_Driver/Src/stm32g4xx_hal_dac.c ****       case HAL_DAC_MSPINIT_CB_ID :
1448:Drivers/STM32G4xx_HAL_Driver/Src/stm32g4xx_hal_dac.c ****         hdac->MspInitCallback = pCallback;
1449:Drivers/STM32G4xx_HAL_Driver/Src/stm32g4xx_hal_dac.c ****         break;
1450:Drivers/STM32G4xx_HAL_Driver/Src/stm32g4xx_hal_dac.c ****       case HAL_DAC_MSPDEINIT_CB_ID :
1451:Drivers/STM32G4xx_HAL_Driver/Src/stm32g4xx_hal_dac.c ****         hdac->MspDeInitCallback = pCallback;
1452:Drivers/STM32G4xx_HAL_Driver/Src/stm32g4xx_hal_dac.c ****         break;
1453:Drivers/STM32G4xx_HAL_Driver/Src/stm32g4xx_hal_dac.c ****       default :
1454:Drivers/STM32G4xx_HAL_Driver/Src/stm32g4xx_hal_dac.c ****         /* Update the error code */
1455:Drivers/STM32G4xx_HAL_Driver/Src/stm32g4xx_hal_dac.c ****         hdac->ErrorCode |= HAL_DAC_ERROR_INVALID_CALLBACK;
1456:Drivers/STM32G4xx_HAL_Driver/Src/stm32g4xx_hal_dac.c ****         /* update return status */
1457:Drivers/STM32G4xx_HAL_Driver/Src/stm32g4xx_hal_dac.c ****         status =  HAL_ERROR;
1458:Drivers/STM32G4xx_HAL_Driver/Src/stm32g4xx_hal_dac.c ****         break;
1459:Drivers/STM32G4xx_HAL_Driver/Src/stm32g4xx_hal_dac.c ****     }
ARM GAS  /tmp/cchITXCi.s 			page 43


1460:Drivers/STM32G4xx_HAL_Driver/Src/stm32g4xx_hal_dac.c ****   }
1461:Drivers/STM32G4xx_HAL_Driver/Src/stm32g4xx_hal_dac.c ****   else
1462:Drivers/STM32G4xx_HAL_Driver/Src/stm32g4xx_hal_dac.c ****   {
1463:Drivers/STM32G4xx_HAL_Driver/Src/stm32g4xx_hal_dac.c ****     /* Update the error code */
1464:Drivers/STM32G4xx_HAL_Driver/Src/stm32g4xx_hal_dac.c ****     hdac->ErrorCode |= HAL_DAC_ERROR_INVALID_CALLBACK;
1465:Drivers/STM32G4xx_HAL_Driver/Src/stm32g4xx_hal_dac.c ****     /* update return status */
1466:Drivers/STM32G4xx_HAL_Driver/Src/stm32g4xx_hal_dac.c ****     status =  HAL_ERROR;
1467:Drivers/STM32G4xx_HAL_Driver/Src/stm32g4xx_hal_dac.c ****   }
1468:Drivers/STM32G4xx_HAL_Driver/Src/stm32g4xx_hal_dac.c **** 
1469:Drivers/STM32G4xx_HAL_Driver/Src/stm32g4xx_hal_dac.c ****   /* Release Lock */
1470:Drivers/STM32G4xx_HAL_Driver/Src/stm32g4xx_hal_dac.c ****   __HAL_UNLOCK(hdac);
1471:Drivers/STM32G4xx_HAL_Driver/Src/stm32g4xx_hal_dac.c ****   return status;
1472:Drivers/STM32G4xx_HAL_Driver/Src/stm32g4xx_hal_dac.c **** }
1473:Drivers/STM32G4xx_HAL_Driver/Src/stm32g4xx_hal_dac.c **** 
1474:Drivers/STM32G4xx_HAL_Driver/Src/stm32g4xx_hal_dac.c **** /**
1475:Drivers/STM32G4xx_HAL_Driver/Src/stm32g4xx_hal_dac.c ****   * @brief  Unregister a User DAC Callback
1476:Drivers/STM32G4xx_HAL_Driver/Src/stm32g4xx_hal_dac.c ****   *         DAC Callback is redirected to the weak (surcharged) predefined callback
1477:Drivers/STM32G4xx_HAL_Driver/Src/stm32g4xx_hal_dac.c ****   * @param  hdac DAC handle
1478:Drivers/STM32G4xx_HAL_Driver/Src/stm32g4xx_hal_dac.c ****   * @param  CallbackID ID of the callback to be unregistered
1479:Drivers/STM32G4xx_HAL_Driver/Src/stm32g4xx_hal_dac.c ****   *         This parameter can be one of the following values:
1480:Drivers/STM32G4xx_HAL_Driver/Src/stm32g4xx_hal_dac.c ****   *          @arg @ref HAL_DAC_CH1_COMPLETE_CB_ID          DAC CH1 transfer Complete Callback ID
1481:Drivers/STM32G4xx_HAL_Driver/Src/stm32g4xx_hal_dac.c ****   *          @arg @ref HAL_DAC_CH1_HALF_COMPLETE_CB_ID     DAC CH1 Half Complete Callback ID
1482:Drivers/STM32G4xx_HAL_Driver/Src/stm32g4xx_hal_dac.c ****   *          @arg @ref HAL_DAC_CH1_ERROR_ID                DAC CH1 Error Callback ID
1483:Drivers/STM32G4xx_HAL_Driver/Src/stm32g4xx_hal_dac.c ****   *          @arg @ref HAL_DAC_CH1_UNDERRUN_CB_ID          DAC CH1 UnderRun Callback ID
1484:Drivers/STM32G4xx_HAL_Driver/Src/stm32g4xx_hal_dac.c ****   *          @arg @ref HAL_DAC_CH2_COMPLETE_CB_ID          DAC CH2 Complete Callback ID
1485:Drivers/STM32G4xx_HAL_Driver/Src/stm32g4xx_hal_dac.c ****   *          @arg @ref HAL_DAC_CH2_HALF_COMPLETE_CB_ID     DAC CH2 Half Complete Callback ID
1486:Drivers/STM32G4xx_HAL_Driver/Src/stm32g4xx_hal_dac.c ****   *          @arg @ref HAL_DAC_CH2_ERROR_ID                DAC CH2 Error Callback ID
1487:Drivers/STM32G4xx_HAL_Driver/Src/stm32g4xx_hal_dac.c ****   *          @arg @ref HAL_DAC_CH2_UNDERRUN_CB_ID          DAC CH2 UnderRun Callback ID
1488:Drivers/STM32G4xx_HAL_Driver/Src/stm32g4xx_hal_dac.c ****   *          @arg @ref HAL_DAC_MSPINIT_CB_ID               DAC MSP Init Callback ID
1489:Drivers/STM32G4xx_HAL_Driver/Src/stm32g4xx_hal_dac.c ****   *          @arg @ref HAL_DAC_MSPDEINIT_CB_ID             DAC MSP DeInit Callback ID
1490:Drivers/STM32G4xx_HAL_Driver/Src/stm32g4xx_hal_dac.c ****   *          @arg @ref HAL_DAC_ALL_CB_ID                   DAC All callbacks
1491:Drivers/STM32G4xx_HAL_Driver/Src/stm32g4xx_hal_dac.c ****   * @retval status
1492:Drivers/STM32G4xx_HAL_Driver/Src/stm32g4xx_hal_dac.c ****   */
1493:Drivers/STM32G4xx_HAL_Driver/Src/stm32g4xx_hal_dac.c **** HAL_StatusTypeDef HAL_DAC_UnRegisterCallback(DAC_HandleTypeDef *hdac, HAL_DAC_CallbackIDTypeDef Cal
1494:Drivers/STM32G4xx_HAL_Driver/Src/stm32g4xx_hal_dac.c **** {
1495:Drivers/STM32G4xx_HAL_Driver/Src/stm32g4xx_hal_dac.c ****   HAL_StatusTypeDef status = HAL_OK;
1496:Drivers/STM32G4xx_HAL_Driver/Src/stm32g4xx_hal_dac.c **** 
1497:Drivers/STM32G4xx_HAL_Driver/Src/stm32g4xx_hal_dac.c ****   /* Process locked */
1498:Drivers/STM32G4xx_HAL_Driver/Src/stm32g4xx_hal_dac.c ****   __HAL_LOCK(hdac);
1499:Drivers/STM32G4xx_HAL_Driver/Src/stm32g4xx_hal_dac.c **** 
1500:Drivers/STM32G4xx_HAL_Driver/Src/stm32g4xx_hal_dac.c ****   if (hdac->State == HAL_DAC_STATE_READY)
1501:Drivers/STM32G4xx_HAL_Driver/Src/stm32g4xx_hal_dac.c ****   {
1502:Drivers/STM32G4xx_HAL_Driver/Src/stm32g4xx_hal_dac.c ****     switch (CallbackID)
1503:Drivers/STM32G4xx_HAL_Driver/Src/stm32g4xx_hal_dac.c ****     {
1504:Drivers/STM32G4xx_HAL_Driver/Src/stm32g4xx_hal_dac.c ****       case HAL_DAC_CH1_COMPLETE_CB_ID :
1505:Drivers/STM32G4xx_HAL_Driver/Src/stm32g4xx_hal_dac.c ****         hdac->ConvCpltCallbackCh1 = HAL_DAC_ConvCpltCallbackCh1;
1506:Drivers/STM32G4xx_HAL_Driver/Src/stm32g4xx_hal_dac.c ****         break;
1507:Drivers/STM32G4xx_HAL_Driver/Src/stm32g4xx_hal_dac.c ****       case HAL_DAC_CH1_HALF_COMPLETE_CB_ID :
1508:Drivers/STM32G4xx_HAL_Driver/Src/stm32g4xx_hal_dac.c ****         hdac->ConvHalfCpltCallbackCh1 = HAL_DAC_ConvHalfCpltCallbackCh1;
1509:Drivers/STM32G4xx_HAL_Driver/Src/stm32g4xx_hal_dac.c ****         break;
1510:Drivers/STM32G4xx_HAL_Driver/Src/stm32g4xx_hal_dac.c ****       case HAL_DAC_CH1_ERROR_ID :
1511:Drivers/STM32G4xx_HAL_Driver/Src/stm32g4xx_hal_dac.c ****         hdac->ErrorCallbackCh1 = HAL_DAC_ErrorCallbackCh1;
1512:Drivers/STM32G4xx_HAL_Driver/Src/stm32g4xx_hal_dac.c ****         break;
1513:Drivers/STM32G4xx_HAL_Driver/Src/stm32g4xx_hal_dac.c ****       case HAL_DAC_CH1_UNDERRUN_CB_ID :
1514:Drivers/STM32G4xx_HAL_Driver/Src/stm32g4xx_hal_dac.c ****         hdac->DMAUnderrunCallbackCh1 = HAL_DAC_DMAUnderrunCallbackCh1;
1515:Drivers/STM32G4xx_HAL_Driver/Src/stm32g4xx_hal_dac.c ****         break;
1516:Drivers/STM32G4xx_HAL_Driver/Src/stm32g4xx_hal_dac.c **** 
ARM GAS  /tmp/cchITXCi.s 			page 44


1517:Drivers/STM32G4xx_HAL_Driver/Src/stm32g4xx_hal_dac.c ****       case HAL_DAC_CH2_COMPLETE_CB_ID :
1518:Drivers/STM32G4xx_HAL_Driver/Src/stm32g4xx_hal_dac.c ****         hdac->ConvCpltCallbackCh2 = HAL_DACEx_ConvCpltCallbackCh2;
1519:Drivers/STM32G4xx_HAL_Driver/Src/stm32g4xx_hal_dac.c ****         break;
1520:Drivers/STM32G4xx_HAL_Driver/Src/stm32g4xx_hal_dac.c ****       case HAL_DAC_CH2_HALF_COMPLETE_CB_ID :
1521:Drivers/STM32G4xx_HAL_Driver/Src/stm32g4xx_hal_dac.c ****         hdac->ConvHalfCpltCallbackCh2 = HAL_DACEx_ConvHalfCpltCallbackCh2;
1522:Drivers/STM32G4xx_HAL_Driver/Src/stm32g4xx_hal_dac.c ****         break;
1523:Drivers/STM32G4xx_HAL_Driver/Src/stm32g4xx_hal_dac.c ****       case HAL_DAC_CH2_ERROR_ID :
1524:Drivers/STM32G4xx_HAL_Driver/Src/stm32g4xx_hal_dac.c ****         hdac->ErrorCallbackCh2 = HAL_DACEx_ErrorCallbackCh2;
1525:Drivers/STM32G4xx_HAL_Driver/Src/stm32g4xx_hal_dac.c ****         break;
1526:Drivers/STM32G4xx_HAL_Driver/Src/stm32g4xx_hal_dac.c ****       case HAL_DAC_CH2_UNDERRUN_CB_ID :
1527:Drivers/STM32G4xx_HAL_Driver/Src/stm32g4xx_hal_dac.c ****         hdac->DMAUnderrunCallbackCh2 = HAL_DACEx_DMAUnderrunCallbackCh2;
1528:Drivers/STM32G4xx_HAL_Driver/Src/stm32g4xx_hal_dac.c ****         break;
1529:Drivers/STM32G4xx_HAL_Driver/Src/stm32g4xx_hal_dac.c **** 
1530:Drivers/STM32G4xx_HAL_Driver/Src/stm32g4xx_hal_dac.c ****       case HAL_DAC_MSPINIT_CB_ID :
1531:Drivers/STM32G4xx_HAL_Driver/Src/stm32g4xx_hal_dac.c ****         hdac->MspInitCallback = HAL_DAC_MspInit;
1532:Drivers/STM32G4xx_HAL_Driver/Src/stm32g4xx_hal_dac.c ****         break;
1533:Drivers/STM32G4xx_HAL_Driver/Src/stm32g4xx_hal_dac.c ****       case HAL_DAC_MSPDEINIT_CB_ID :
1534:Drivers/STM32G4xx_HAL_Driver/Src/stm32g4xx_hal_dac.c ****         hdac->MspDeInitCallback = HAL_DAC_MspDeInit;
1535:Drivers/STM32G4xx_HAL_Driver/Src/stm32g4xx_hal_dac.c ****         break;
1536:Drivers/STM32G4xx_HAL_Driver/Src/stm32g4xx_hal_dac.c ****       case HAL_DAC_ALL_CB_ID :
1537:Drivers/STM32G4xx_HAL_Driver/Src/stm32g4xx_hal_dac.c ****         hdac->ConvCpltCallbackCh1 = HAL_DAC_ConvCpltCallbackCh1;
1538:Drivers/STM32G4xx_HAL_Driver/Src/stm32g4xx_hal_dac.c ****         hdac->ConvHalfCpltCallbackCh1 = HAL_DAC_ConvHalfCpltCallbackCh1;
1539:Drivers/STM32G4xx_HAL_Driver/Src/stm32g4xx_hal_dac.c ****         hdac->ErrorCallbackCh1 = HAL_DAC_ErrorCallbackCh1;
1540:Drivers/STM32G4xx_HAL_Driver/Src/stm32g4xx_hal_dac.c ****         hdac->DMAUnderrunCallbackCh1 = HAL_DAC_DMAUnderrunCallbackCh1;
1541:Drivers/STM32G4xx_HAL_Driver/Src/stm32g4xx_hal_dac.c **** 
1542:Drivers/STM32G4xx_HAL_Driver/Src/stm32g4xx_hal_dac.c ****         hdac->ConvCpltCallbackCh2 = HAL_DACEx_ConvCpltCallbackCh2;
1543:Drivers/STM32G4xx_HAL_Driver/Src/stm32g4xx_hal_dac.c ****         hdac->ConvHalfCpltCallbackCh2 = HAL_DACEx_ConvHalfCpltCallbackCh2;
1544:Drivers/STM32G4xx_HAL_Driver/Src/stm32g4xx_hal_dac.c ****         hdac->ErrorCallbackCh2 = HAL_DACEx_ErrorCallbackCh2;
1545:Drivers/STM32G4xx_HAL_Driver/Src/stm32g4xx_hal_dac.c ****         hdac->DMAUnderrunCallbackCh2 = HAL_DACEx_DMAUnderrunCallbackCh2;
1546:Drivers/STM32G4xx_HAL_Driver/Src/stm32g4xx_hal_dac.c **** 
1547:Drivers/STM32G4xx_HAL_Driver/Src/stm32g4xx_hal_dac.c ****         hdac->MspInitCallback = HAL_DAC_MspInit;
1548:Drivers/STM32G4xx_HAL_Driver/Src/stm32g4xx_hal_dac.c ****         hdac->MspDeInitCallback = HAL_DAC_MspDeInit;
1549:Drivers/STM32G4xx_HAL_Driver/Src/stm32g4xx_hal_dac.c ****         break;
1550:Drivers/STM32G4xx_HAL_Driver/Src/stm32g4xx_hal_dac.c ****       default :
1551:Drivers/STM32G4xx_HAL_Driver/Src/stm32g4xx_hal_dac.c ****         /* Update the error code */
1552:Drivers/STM32G4xx_HAL_Driver/Src/stm32g4xx_hal_dac.c ****         hdac->ErrorCode |= HAL_DAC_ERROR_INVALID_CALLBACK;
1553:Drivers/STM32G4xx_HAL_Driver/Src/stm32g4xx_hal_dac.c ****         /* update return status */
1554:Drivers/STM32G4xx_HAL_Driver/Src/stm32g4xx_hal_dac.c ****         status =  HAL_ERROR;
1555:Drivers/STM32G4xx_HAL_Driver/Src/stm32g4xx_hal_dac.c ****         break;
1556:Drivers/STM32G4xx_HAL_Driver/Src/stm32g4xx_hal_dac.c ****     }
1557:Drivers/STM32G4xx_HAL_Driver/Src/stm32g4xx_hal_dac.c ****   }
1558:Drivers/STM32G4xx_HAL_Driver/Src/stm32g4xx_hal_dac.c ****   else if (hdac->State == HAL_DAC_STATE_RESET)
1559:Drivers/STM32G4xx_HAL_Driver/Src/stm32g4xx_hal_dac.c ****   {
1560:Drivers/STM32G4xx_HAL_Driver/Src/stm32g4xx_hal_dac.c ****     switch (CallbackID)
1561:Drivers/STM32G4xx_HAL_Driver/Src/stm32g4xx_hal_dac.c ****     {
1562:Drivers/STM32G4xx_HAL_Driver/Src/stm32g4xx_hal_dac.c ****       case HAL_DAC_MSPINIT_CB_ID :
1563:Drivers/STM32G4xx_HAL_Driver/Src/stm32g4xx_hal_dac.c ****         hdac->MspInitCallback = HAL_DAC_MspInit;
1564:Drivers/STM32G4xx_HAL_Driver/Src/stm32g4xx_hal_dac.c ****         break;
1565:Drivers/STM32G4xx_HAL_Driver/Src/stm32g4xx_hal_dac.c ****       case HAL_DAC_MSPDEINIT_CB_ID :
1566:Drivers/STM32G4xx_HAL_Driver/Src/stm32g4xx_hal_dac.c ****         hdac->MspDeInitCallback = HAL_DAC_MspDeInit;
1567:Drivers/STM32G4xx_HAL_Driver/Src/stm32g4xx_hal_dac.c ****         break;
1568:Drivers/STM32G4xx_HAL_Driver/Src/stm32g4xx_hal_dac.c ****       default :
1569:Drivers/STM32G4xx_HAL_Driver/Src/stm32g4xx_hal_dac.c ****         /* Update the error code */
1570:Drivers/STM32G4xx_HAL_Driver/Src/stm32g4xx_hal_dac.c ****         hdac->ErrorCode |= HAL_DAC_ERROR_INVALID_CALLBACK;
1571:Drivers/STM32G4xx_HAL_Driver/Src/stm32g4xx_hal_dac.c ****         /* update return status */
1572:Drivers/STM32G4xx_HAL_Driver/Src/stm32g4xx_hal_dac.c ****         status =  HAL_ERROR;
1573:Drivers/STM32G4xx_HAL_Driver/Src/stm32g4xx_hal_dac.c ****         break;
ARM GAS  /tmp/cchITXCi.s 			page 45


1574:Drivers/STM32G4xx_HAL_Driver/Src/stm32g4xx_hal_dac.c ****     }
1575:Drivers/STM32G4xx_HAL_Driver/Src/stm32g4xx_hal_dac.c ****   }
1576:Drivers/STM32G4xx_HAL_Driver/Src/stm32g4xx_hal_dac.c ****   else
1577:Drivers/STM32G4xx_HAL_Driver/Src/stm32g4xx_hal_dac.c ****   {
1578:Drivers/STM32G4xx_HAL_Driver/Src/stm32g4xx_hal_dac.c ****     /* Update the error code */
1579:Drivers/STM32G4xx_HAL_Driver/Src/stm32g4xx_hal_dac.c ****     hdac->ErrorCode |= HAL_DAC_ERROR_INVALID_CALLBACK;
1580:Drivers/STM32G4xx_HAL_Driver/Src/stm32g4xx_hal_dac.c ****     /* update return status */
1581:Drivers/STM32G4xx_HAL_Driver/Src/stm32g4xx_hal_dac.c ****     status =  HAL_ERROR;
1582:Drivers/STM32G4xx_HAL_Driver/Src/stm32g4xx_hal_dac.c ****   }
1583:Drivers/STM32G4xx_HAL_Driver/Src/stm32g4xx_hal_dac.c **** 
1584:Drivers/STM32G4xx_HAL_Driver/Src/stm32g4xx_hal_dac.c ****   /* Release Lock */
1585:Drivers/STM32G4xx_HAL_Driver/Src/stm32g4xx_hal_dac.c ****   __HAL_UNLOCK(hdac);
1586:Drivers/STM32G4xx_HAL_Driver/Src/stm32g4xx_hal_dac.c ****   return status;
1587:Drivers/STM32G4xx_HAL_Driver/Src/stm32g4xx_hal_dac.c **** }
1588:Drivers/STM32G4xx_HAL_Driver/Src/stm32g4xx_hal_dac.c **** #endif /* USE_HAL_DAC_REGISTER_CALLBACKS */
1589:Drivers/STM32G4xx_HAL_Driver/Src/stm32g4xx_hal_dac.c **** 
1590:Drivers/STM32G4xx_HAL_Driver/Src/stm32g4xx_hal_dac.c **** /**
1591:Drivers/STM32G4xx_HAL_Driver/Src/stm32g4xx_hal_dac.c ****   * @}
1592:Drivers/STM32G4xx_HAL_Driver/Src/stm32g4xx_hal_dac.c ****   */
1593:Drivers/STM32G4xx_HAL_Driver/Src/stm32g4xx_hal_dac.c **** 
1594:Drivers/STM32G4xx_HAL_Driver/Src/stm32g4xx_hal_dac.c **** /**
1595:Drivers/STM32G4xx_HAL_Driver/Src/stm32g4xx_hal_dac.c ****   * @}
1596:Drivers/STM32G4xx_HAL_Driver/Src/stm32g4xx_hal_dac.c ****   */
1597:Drivers/STM32G4xx_HAL_Driver/Src/stm32g4xx_hal_dac.c **** 
1598:Drivers/STM32G4xx_HAL_Driver/Src/stm32g4xx_hal_dac.c **** /** @addtogroup DAC_Private_Functions
1599:Drivers/STM32G4xx_HAL_Driver/Src/stm32g4xx_hal_dac.c ****   * @{
1600:Drivers/STM32G4xx_HAL_Driver/Src/stm32g4xx_hal_dac.c ****   */
1601:Drivers/STM32G4xx_HAL_Driver/Src/stm32g4xx_hal_dac.c **** 
1602:Drivers/STM32G4xx_HAL_Driver/Src/stm32g4xx_hal_dac.c **** /**
1603:Drivers/STM32G4xx_HAL_Driver/Src/stm32g4xx_hal_dac.c ****   * @brief  DMA conversion complete callback.
1604:Drivers/STM32G4xx_HAL_Driver/Src/stm32g4xx_hal_dac.c ****   * @param  hdma pointer to a DMA_HandleTypeDef structure that contains
1605:Drivers/STM32G4xx_HAL_Driver/Src/stm32g4xx_hal_dac.c ****   *                the configuration information for the specified DMA module.
1606:Drivers/STM32G4xx_HAL_Driver/Src/stm32g4xx_hal_dac.c ****   * @retval None
1607:Drivers/STM32G4xx_HAL_Driver/Src/stm32g4xx_hal_dac.c ****   */
1608:Drivers/STM32G4xx_HAL_Driver/Src/stm32g4xx_hal_dac.c **** void DAC_DMAConvCpltCh1(DMA_HandleTypeDef *hdma)
1609:Drivers/STM32G4xx_HAL_Driver/Src/stm32g4xx_hal_dac.c **** {
 852              		.loc 1 1609 1 is_stmt 1 view -0
 853              		.cfi_startproc
 854              		@ args = 0, pretend = 0, frame = 0
 855              		@ frame_needed = 0, uses_anonymous_args = 0
 856              		.loc 1 1609 1 is_stmt 0 view .LVU235
 857 0000 10B5     		push	{r4, lr}
 858              	.LCFI14:
 859              		.cfi_def_cfa_offset 8
 860              		.cfi_offset 4, -8
 861              		.cfi_offset 14, -4
1610:Drivers/STM32G4xx_HAL_Driver/Src/stm32g4xx_hal_dac.c ****   DAC_HandleTypeDef *hdac = (DAC_HandleTypeDef *)((DMA_HandleTypeDef *)hdma)->Parent;
 862              		.loc 1 1610 3 is_stmt 1 view .LVU236
 863              		.loc 1 1610 22 is_stmt 0 view .LVU237
 864 0002 846A     		ldr	r4, [r0, #40]
 865              	.LVL67:
1611:Drivers/STM32G4xx_HAL_Driver/Src/stm32g4xx_hal_dac.c **** 
1612:Drivers/STM32G4xx_HAL_Driver/Src/stm32g4xx_hal_dac.c **** #if (USE_HAL_DAC_REGISTER_CALLBACKS == 1)
1613:Drivers/STM32G4xx_HAL_Driver/Src/stm32g4xx_hal_dac.c ****   hdac->ConvCpltCallbackCh1(hdac);
1614:Drivers/STM32G4xx_HAL_Driver/Src/stm32g4xx_hal_dac.c **** #else
1615:Drivers/STM32G4xx_HAL_Driver/Src/stm32g4xx_hal_dac.c ****   HAL_DAC_ConvCpltCallbackCh1(hdac);
 866              		.loc 1 1615 3 is_stmt 1 view .LVU238
ARM GAS  /tmp/cchITXCi.s 			page 46


 867 0004 2046     		mov	r0, r4
 868              	.LVL68:
 869              		.loc 1 1615 3 is_stmt 0 view .LVU239
 870 0006 FFF7FEFF 		bl	HAL_DAC_ConvCpltCallbackCh1
 871              	.LVL69:
1616:Drivers/STM32G4xx_HAL_Driver/Src/stm32g4xx_hal_dac.c **** #endif /* USE_HAL_DAC_REGISTER_CALLBACKS */
1617:Drivers/STM32G4xx_HAL_Driver/Src/stm32g4xx_hal_dac.c **** 
1618:Drivers/STM32G4xx_HAL_Driver/Src/stm32g4xx_hal_dac.c ****   hdac->State = HAL_DAC_STATE_READY;
 872              		.loc 1 1618 3 is_stmt 1 view .LVU240
 873              		.loc 1 1618 15 is_stmt 0 view .LVU241
 874 000a 0123     		movs	r3, #1
 875 000c 2371     		strb	r3, [r4, #4]
1619:Drivers/STM32G4xx_HAL_Driver/Src/stm32g4xx_hal_dac.c **** }
 876              		.loc 1 1619 1 view .LVU242
 877 000e 10BD     		pop	{r4, pc}
 878              		.loc 1 1619 1 view .LVU243
 879              		.cfi_endproc
 880              	.LFE150:
 882              		.section	.text.HAL_DAC_ConvHalfCpltCallbackCh1,"ax",%progbits
 883              		.align	1
 884              		.weak	HAL_DAC_ConvHalfCpltCallbackCh1
 885              		.syntax unified
 886              		.thumb
 887              		.thumb_func
 888              		.fpu fpv4-sp-d16
 890              	HAL_DAC_ConvHalfCpltCallbackCh1:
 891              	.LVL70:
 892              	.LFB143:
 987:Drivers/STM32G4xx_HAL_Driver/Src/stm32g4xx_hal_dac.c ****   /* Prevent unused argument(s) compilation warning */
 893              		.loc 1 987 1 is_stmt 1 view -0
 894              		.cfi_startproc
 895              		@ args = 0, pretend = 0, frame = 0
 896              		@ frame_needed = 0, uses_anonymous_args = 0
 897              		@ link register save eliminated.
 989:Drivers/STM32G4xx_HAL_Driver/Src/stm32g4xx_hal_dac.c **** 
 898              		.loc 1 989 3 view .LVU245
 994:Drivers/STM32G4xx_HAL_Driver/Src/stm32g4xx_hal_dac.c **** 
 899              		.loc 1 994 1 is_stmt 0 view .LVU246
 900 0000 7047     		bx	lr
 901              		.cfi_endproc
 902              	.LFE143:
 904              		.section	.text.DAC_DMAHalfConvCpltCh1,"ax",%progbits
 905              		.align	1
 906              		.global	DAC_DMAHalfConvCpltCh1
 907              		.syntax unified
 908              		.thumb
 909              		.thumb_func
 910              		.fpu fpv4-sp-d16
 912              	DAC_DMAHalfConvCpltCh1:
 913              	.LVL71:
 914              	.LFB151:
1620:Drivers/STM32G4xx_HAL_Driver/Src/stm32g4xx_hal_dac.c **** 
1621:Drivers/STM32G4xx_HAL_Driver/Src/stm32g4xx_hal_dac.c **** /**
1622:Drivers/STM32G4xx_HAL_Driver/Src/stm32g4xx_hal_dac.c ****   * @brief  DMA half transfer complete callback.
1623:Drivers/STM32G4xx_HAL_Driver/Src/stm32g4xx_hal_dac.c ****   * @param  hdma pointer to a DMA_HandleTypeDef structure that contains
1624:Drivers/STM32G4xx_HAL_Driver/Src/stm32g4xx_hal_dac.c ****   *                the configuration information for the specified DMA module.
1625:Drivers/STM32G4xx_HAL_Driver/Src/stm32g4xx_hal_dac.c ****   * @retval None
ARM GAS  /tmp/cchITXCi.s 			page 47


1626:Drivers/STM32G4xx_HAL_Driver/Src/stm32g4xx_hal_dac.c ****   */
1627:Drivers/STM32G4xx_HAL_Driver/Src/stm32g4xx_hal_dac.c **** void DAC_DMAHalfConvCpltCh1(DMA_HandleTypeDef *hdma)
1628:Drivers/STM32G4xx_HAL_Driver/Src/stm32g4xx_hal_dac.c **** {
 915              		.loc 1 1628 1 is_stmt 1 view -0
 916              		.cfi_startproc
 917              		@ args = 0, pretend = 0, frame = 0
 918              		@ frame_needed = 0, uses_anonymous_args = 0
 919              		.loc 1 1628 1 is_stmt 0 view .LVU248
 920 0000 08B5     		push	{r3, lr}
 921              	.LCFI15:
 922              		.cfi_def_cfa_offset 8
 923              		.cfi_offset 3, -8
 924              		.cfi_offset 14, -4
1629:Drivers/STM32G4xx_HAL_Driver/Src/stm32g4xx_hal_dac.c ****   DAC_HandleTypeDef *hdac = (DAC_HandleTypeDef *)((DMA_HandleTypeDef *)hdma)->Parent;
 925              		.loc 1 1629 3 is_stmt 1 view .LVU249
 926              	.LVL72:
1630:Drivers/STM32G4xx_HAL_Driver/Src/stm32g4xx_hal_dac.c ****   /* Conversion complete callback */
1631:Drivers/STM32G4xx_HAL_Driver/Src/stm32g4xx_hal_dac.c **** #if (USE_HAL_DAC_REGISTER_CALLBACKS == 1)
1632:Drivers/STM32G4xx_HAL_Driver/Src/stm32g4xx_hal_dac.c ****   hdac->ConvHalfCpltCallbackCh1(hdac);
1633:Drivers/STM32G4xx_HAL_Driver/Src/stm32g4xx_hal_dac.c **** #else
1634:Drivers/STM32G4xx_HAL_Driver/Src/stm32g4xx_hal_dac.c ****   HAL_DAC_ConvHalfCpltCallbackCh1(hdac);
 927              		.loc 1 1634 3 view .LVU250
 928 0002 806A     		ldr	r0, [r0, #40]
 929              	.LVL73:
 930              		.loc 1 1634 3 is_stmt 0 view .LVU251
 931 0004 FFF7FEFF 		bl	HAL_DAC_ConvHalfCpltCallbackCh1
 932              	.LVL74:
1635:Drivers/STM32G4xx_HAL_Driver/Src/stm32g4xx_hal_dac.c **** #endif  /* USE_HAL_DAC_REGISTER_CALLBACKS */
1636:Drivers/STM32G4xx_HAL_Driver/Src/stm32g4xx_hal_dac.c **** }
 933              		.loc 1 1636 1 view .LVU252
 934 0008 08BD     		pop	{r3, pc}
 935              		.cfi_endproc
 936              	.LFE151:
 938              		.section	.text.HAL_DAC_ErrorCallbackCh1,"ax",%progbits
 939              		.align	1
 940              		.weak	HAL_DAC_ErrorCallbackCh1
 941              		.syntax unified
 942              		.thumb
 943              		.thumb_func
 944              		.fpu fpv4-sp-d16
 946              	HAL_DAC_ErrorCallbackCh1:
 947              	.LVL75:
 948              	.LFB144:
1003:Drivers/STM32G4xx_HAL_Driver/Src/stm32g4xx_hal_dac.c ****   /* Prevent unused argument(s) compilation warning */
 949              		.loc 1 1003 1 is_stmt 1 view -0
 950              		.cfi_startproc
 951              		@ args = 0, pretend = 0, frame = 0
 952              		@ frame_needed = 0, uses_anonymous_args = 0
 953              		@ link register save eliminated.
1005:Drivers/STM32G4xx_HAL_Driver/Src/stm32g4xx_hal_dac.c **** 
 954              		.loc 1 1005 3 view .LVU254
1010:Drivers/STM32G4xx_HAL_Driver/Src/stm32g4xx_hal_dac.c **** 
 955              		.loc 1 1010 1 is_stmt 0 view .LVU255
 956 0000 7047     		bx	lr
 957              		.cfi_endproc
 958              	.LFE144:
 960              		.section	.text.DAC_DMAErrorCh1,"ax",%progbits
ARM GAS  /tmp/cchITXCi.s 			page 48


 961              		.align	1
 962              		.global	DAC_DMAErrorCh1
 963              		.syntax unified
 964              		.thumb
 965              		.thumb_func
 966              		.fpu fpv4-sp-d16
 968              	DAC_DMAErrorCh1:
 969              	.LVL76:
 970              	.LFB152:
1637:Drivers/STM32G4xx_HAL_Driver/Src/stm32g4xx_hal_dac.c **** 
1638:Drivers/STM32G4xx_HAL_Driver/Src/stm32g4xx_hal_dac.c **** /**
1639:Drivers/STM32G4xx_HAL_Driver/Src/stm32g4xx_hal_dac.c ****   * @brief  DMA error callback
1640:Drivers/STM32G4xx_HAL_Driver/Src/stm32g4xx_hal_dac.c ****   * @param  hdma pointer to a DMA_HandleTypeDef structure that contains
1641:Drivers/STM32G4xx_HAL_Driver/Src/stm32g4xx_hal_dac.c ****   *                the configuration information for the specified DMA module.
1642:Drivers/STM32G4xx_HAL_Driver/Src/stm32g4xx_hal_dac.c ****   * @retval None
1643:Drivers/STM32G4xx_HAL_Driver/Src/stm32g4xx_hal_dac.c ****   */
1644:Drivers/STM32G4xx_HAL_Driver/Src/stm32g4xx_hal_dac.c **** void DAC_DMAErrorCh1(DMA_HandleTypeDef *hdma)
1645:Drivers/STM32G4xx_HAL_Driver/Src/stm32g4xx_hal_dac.c **** {
 971              		.loc 1 1645 1 is_stmt 1 view -0
 972              		.cfi_startproc
 973              		@ args = 0, pretend = 0, frame = 0
 974              		@ frame_needed = 0, uses_anonymous_args = 0
 975              		.loc 1 1645 1 is_stmt 0 view .LVU257
 976 0000 10B5     		push	{r4, lr}
 977              	.LCFI16:
 978              		.cfi_def_cfa_offset 8
 979              		.cfi_offset 4, -8
 980              		.cfi_offset 14, -4
1646:Drivers/STM32G4xx_HAL_Driver/Src/stm32g4xx_hal_dac.c ****   DAC_HandleTypeDef *hdac = (DAC_HandleTypeDef *)((DMA_HandleTypeDef *)hdma)->Parent;
 981              		.loc 1 1646 3 is_stmt 1 view .LVU258
 982              		.loc 1 1646 22 is_stmt 0 view .LVU259
 983 0002 846A     		ldr	r4, [r0, #40]
 984              	.LVL77:
1647:Drivers/STM32G4xx_HAL_Driver/Src/stm32g4xx_hal_dac.c **** 
1648:Drivers/STM32G4xx_HAL_Driver/Src/stm32g4xx_hal_dac.c ****   /* Set DAC error code to DMA error */
1649:Drivers/STM32G4xx_HAL_Driver/Src/stm32g4xx_hal_dac.c ****   hdac->ErrorCode |= HAL_DAC_ERROR_DMA;
 985              		.loc 1 1649 3 is_stmt 1 view .LVU260
 986              		.loc 1 1649 19 is_stmt 0 view .LVU261
 987 0004 2369     		ldr	r3, [r4, #16]
 988 0006 43F00403 		orr	r3, r3, #4
 989 000a 2361     		str	r3, [r4, #16]
1650:Drivers/STM32G4xx_HAL_Driver/Src/stm32g4xx_hal_dac.c **** 
1651:Drivers/STM32G4xx_HAL_Driver/Src/stm32g4xx_hal_dac.c **** #if (USE_HAL_DAC_REGISTER_CALLBACKS == 1)
1652:Drivers/STM32G4xx_HAL_Driver/Src/stm32g4xx_hal_dac.c ****   hdac->ErrorCallbackCh1(hdac);
1653:Drivers/STM32G4xx_HAL_Driver/Src/stm32g4xx_hal_dac.c **** #else
1654:Drivers/STM32G4xx_HAL_Driver/Src/stm32g4xx_hal_dac.c ****   HAL_DAC_ErrorCallbackCh1(hdac);
 990              		.loc 1 1654 3 is_stmt 1 view .LVU262
 991 000c 2046     		mov	r0, r4
 992              	.LVL78:
 993              		.loc 1 1654 3 is_stmt 0 view .LVU263
 994 000e FFF7FEFF 		bl	HAL_DAC_ErrorCallbackCh1
 995              	.LVL79:
1655:Drivers/STM32G4xx_HAL_Driver/Src/stm32g4xx_hal_dac.c **** #endif /* USE_HAL_DAC_REGISTER_CALLBACKS */
1656:Drivers/STM32G4xx_HAL_Driver/Src/stm32g4xx_hal_dac.c **** 
1657:Drivers/STM32G4xx_HAL_Driver/Src/stm32g4xx_hal_dac.c ****   hdac->State = HAL_DAC_STATE_READY;
 996              		.loc 1 1657 3 is_stmt 1 view .LVU264
 997              		.loc 1 1657 15 is_stmt 0 view .LVU265
ARM GAS  /tmp/cchITXCi.s 			page 49


 998 0012 0123     		movs	r3, #1
 999 0014 2371     		strb	r3, [r4, #4]
1658:Drivers/STM32G4xx_HAL_Driver/Src/stm32g4xx_hal_dac.c **** }
 1000              		.loc 1 1658 1 view .LVU266
 1001 0016 10BD     		pop	{r4, pc}
 1002              		.loc 1 1658 1 view .LVU267
 1003              		.cfi_endproc
 1004              	.LFE152:
 1006              		.section	.text.HAL_DAC_DMAUnderrunCallbackCh1,"ax",%progbits
 1007              		.align	1
 1008              		.weak	HAL_DAC_DMAUnderrunCallbackCh1
 1009              		.syntax unified
 1010              		.thumb
 1011              		.thumb_func
 1012              		.fpu fpv4-sp-d16
 1014              	HAL_DAC_DMAUnderrunCallbackCh1:
 1015              	.LVL80:
 1016              	.LFB145:
1019:Drivers/STM32G4xx_HAL_Driver/Src/stm32g4xx_hal_dac.c ****   /* Prevent unused argument(s) compilation warning */
 1017              		.loc 1 1019 1 is_stmt 1 view -0
 1018              		.cfi_startproc
 1019              		@ args = 0, pretend = 0, frame = 0
 1020              		@ frame_needed = 0, uses_anonymous_args = 0
 1021              		@ link register save eliminated.
1021:Drivers/STM32G4xx_HAL_Driver/Src/stm32g4xx_hal_dac.c **** 
 1022              		.loc 1 1021 3 view .LVU269
1026:Drivers/STM32G4xx_HAL_Driver/Src/stm32g4xx_hal_dac.c **** 
 1023              		.loc 1 1026 1 is_stmt 0 view .LVU270
 1024 0000 7047     		bx	lr
 1025              		.cfi_endproc
 1026              	.LFE145:
 1028              		.section	.text.HAL_DAC_IRQHandler,"ax",%progbits
 1029              		.align	1
 1030              		.global	HAL_DAC_IRQHandler
 1031              		.syntax unified
 1032              		.thumb
 1033              		.thumb_func
 1034              		.fpu fpv4-sp-d16
 1036              	HAL_DAC_IRQHandler:
 1037              	.LVL81:
 1038              	.LFB140:
 857:Drivers/STM32G4xx_HAL_Driver/Src/stm32g4xx_hal_dac.c ****   if (__HAL_DAC_GET_IT_SOURCE(hdac, DAC_IT_DMAUDR1))
 1039              		.loc 1 857 1 is_stmt 1 view -0
 1040              		.cfi_startproc
 1041              		@ args = 0, pretend = 0, frame = 0
 1042              		@ frame_needed = 0, uses_anonymous_args = 0
 857:Drivers/STM32G4xx_HAL_Driver/Src/stm32g4xx_hal_dac.c ****   if (__HAL_DAC_GET_IT_SOURCE(hdac, DAC_IT_DMAUDR1))
 1043              		.loc 1 857 1 is_stmt 0 view .LVU272
 1044 0000 10B5     		push	{r4, lr}
 1045              	.LCFI17:
 1046              		.cfi_def_cfa_offset 8
 1047              		.cfi_offset 4, -8
 1048              		.cfi_offset 14, -4
 1049 0002 0446     		mov	r4, r0
 858:Drivers/STM32G4xx_HAL_Driver/Src/stm32g4xx_hal_dac.c ****   {
 1050              		.loc 1 858 3 is_stmt 1 view .LVU273
 858:Drivers/STM32G4xx_HAL_Driver/Src/stm32g4xx_hal_dac.c ****   {
ARM GAS  /tmp/cchITXCi.s 			page 50


 1051              		.loc 1 858 7 is_stmt 0 view .LVU274
 1052 0004 0368     		ldr	r3, [r0]
 1053 0006 1A68     		ldr	r2, [r3]
 858:Drivers/STM32G4xx_HAL_Driver/Src/stm32g4xx_hal_dac.c ****   {
 1054              		.loc 1 858 6 view .LVU275
 1055 0008 12F4005F 		tst	r2, #8192
 1056 000c 03D0     		beq	.L70
 861:Drivers/STM32G4xx_HAL_Driver/Src/stm32g4xx_hal_dac.c ****     {
 1057              		.loc 1 861 5 is_stmt 1 view .LVU276
 861:Drivers/STM32G4xx_HAL_Driver/Src/stm32g4xx_hal_dac.c ****     {
 1058              		.loc 1 861 9 is_stmt 0 view .LVU277
 1059 000e 5A6B     		ldr	r2, [r3, #52]
 861:Drivers/STM32G4xx_HAL_Driver/Src/stm32g4xx_hal_dac.c ****     {
 1060              		.loc 1 861 8 view .LVU278
 1061 0010 12F4005F 		tst	r2, #8192
 1062 0014 09D1     		bne	.L73
 1063              	.LVL82:
 1064              	.L70:
 885:Drivers/STM32G4xx_HAL_Driver/Src/stm32g4xx_hal_dac.c ****   {
 1065              		.loc 1 885 3 is_stmt 1 view .LVU279
 885:Drivers/STM32G4xx_HAL_Driver/Src/stm32g4xx_hal_dac.c ****   {
 1066              		.loc 1 885 7 is_stmt 0 view .LVU280
 1067 0016 2368     		ldr	r3, [r4]
 1068 0018 1A68     		ldr	r2, [r3]
 885:Drivers/STM32G4xx_HAL_Driver/Src/stm32g4xx_hal_dac.c ****   {
 1069              		.loc 1 885 6 view .LVU281
 1070 001a 12F0005F 		tst	r2, #536870912
 1071 001e 03D0     		beq	.L69
 888:Drivers/STM32G4xx_HAL_Driver/Src/stm32g4xx_hal_dac.c ****     {
 1072              		.loc 1 888 5 is_stmt 1 view .LVU282
 888:Drivers/STM32G4xx_HAL_Driver/Src/stm32g4xx_hal_dac.c ****     {
 1073              		.loc 1 888 9 is_stmt 0 view .LVU283
 1074 0020 5A6B     		ldr	r2, [r3, #52]
 888:Drivers/STM32G4xx_HAL_Driver/Src/stm32g4xx_hal_dac.c ****     {
 1075              		.loc 1 888 8 view .LVU284
 1076 0022 12F0005F 		tst	r2, #536870912
 1077 0026 11D1     		bne	.L74
 1078              	.L69:
 911:Drivers/STM32G4xx_HAL_Driver/Src/stm32g4xx_hal_dac.c **** 
 1079              		.loc 1 911 1 view .LVU285
 1080 0028 10BD     		pop	{r4, pc}
 1081              	.LVL83:
 1082              	.L73:
 864:Drivers/STM32G4xx_HAL_Driver/Src/stm32g4xx_hal_dac.c **** 
 1083              		.loc 1 864 7 is_stmt 1 view .LVU286
 864:Drivers/STM32G4xx_HAL_Driver/Src/stm32g4xx_hal_dac.c **** 
 1084              		.loc 1 864 19 is_stmt 0 view .LVU287
 1085 002a 0422     		movs	r2, #4
 1086 002c 0271     		strb	r2, [r0, #4]
 867:Drivers/STM32G4xx_HAL_Driver/Src/stm32g4xx_hal_dac.c **** 
 1087              		.loc 1 867 7 is_stmt 1 view .LVU288
 1088 002e 0269     		ldr	r2, [r0, #16]
 1089 0030 42F00102 		orr	r2, r2, #1
 1090 0034 0261     		str	r2, [r0, #16]
 870:Drivers/STM32G4xx_HAL_Driver/Src/stm32g4xx_hal_dac.c **** 
 1091              		.loc 1 870 7 view .LVU289
 1092 0036 4FF40052 		mov	r2, #8192
ARM GAS  /tmp/cchITXCi.s 			page 51


 1093 003a 5A63     		str	r2, [r3, #52]
 873:Drivers/STM32G4xx_HAL_Driver/Src/stm32g4xx_hal_dac.c **** 
 1094              		.loc 1 873 7 view .LVU290
 1095 003c 0268     		ldr	r2, [r0]
 1096 003e 1368     		ldr	r3, [r2]
 1097 0040 23F48053 		bic	r3, r3, #4096
 1098 0044 1360     		str	r3, [r2]
 879:Drivers/STM32G4xx_HAL_Driver/Src/stm32g4xx_hal_dac.c **** #endif /* USE_HAL_DAC_REGISTER_CALLBACKS */
 1099              		.loc 1 879 7 view .LVU291
 1100 0046 FFF7FEFF 		bl	HAL_DAC_DMAUnderrunCallbackCh1
 1101              	.LVL84:
 879:Drivers/STM32G4xx_HAL_Driver/Src/stm32g4xx_hal_dac.c **** #endif /* USE_HAL_DAC_REGISTER_CALLBACKS */
 1102              		.loc 1 879 7 is_stmt 0 view .LVU292
 1103 004a E4E7     		b	.L70
 1104              	.L74:
 891:Drivers/STM32G4xx_HAL_Driver/Src/stm32g4xx_hal_dac.c **** 
 1105              		.loc 1 891 7 is_stmt 1 view .LVU293
 891:Drivers/STM32G4xx_HAL_Driver/Src/stm32g4xx_hal_dac.c **** 
 1106              		.loc 1 891 19 is_stmt 0 view .LVU294
 1107 004c 0422     		movs	r2, #4
 1108 004e 2271     		strb	r2, [r4, #4]
 894:Drivers/STM32G4xx_HAL_Driver/Src/stm32g4xx_hal_dac.c **** 
 1109              		.loc 1 894 7 is_stmt 1 view .LVU295
 1110 0050 2269     		ldr	r2, [r4, #16]
 1111 0052 42F00202 		orr	r2, r2, #2
 1112 0056 2261     		str	r2, [r4, #16]
 897:Drivers/STM32G4xx_HAL_Driver/Src/stm32g4xx_hal_dac.c **** 
 1113              		.loc 1 897 7 view .LVU296
 1114 0058 4FF00052 		mov	r2, #536870912
 1115 005c 5A63     		str	r2, [r3, #52]
 900:Drivers/STM32G4xx_HAL_Driver/Src/stm32g4xx_hal_dac.c **** 
 1116              		.loc 1 900 7 view .LVU297
 1117 005e 2268     		ldr	r2, [r4]
 1118 0060 1368     		ldr	r3, [r2]
 1119 0062 23F08053 		bic	r3, r3, #268435456
 1120 0066 1360     		str	r3, [r2]
 906:Drivers/STM32G4xx_HAL_Driver/Src/stm32g4xx_hal_dac.c **** #endif /* USE_HAL_DAC_REGISTER_CALLBACKS */
 1121              		.loc 1 906 7 view .LVU298
 1122 0068 2046     		mov	r0, r4
 1123 006a FFF7FEFF 		bl	HAL_DACEx_DMAUnderrunCallbackCh2
 1124              	.LVL85:
 911:Drivers/STM32G4xx_HAL_Driver/Src/stm32g4xx_hal_dac.c **** 
 1125              		.loc 1 911 1 is_stmt 0 view .LVU299
 1126 006e DBE7     		b	.L69
 1127              		.cfi_endproc
 1128              	.LFE140:
 1130              		.section	.text.HAL_DAC_GetValue,"ax",%progbits
 1131              		.align	1
 1132              		.global	HAL_DAC_GetValue
 1133              		.syntax unified
 1134              		.thumb
 1135              		.thumb_func
 1136              		.fpu fpv4-sp-d16
 1138              	HAL_DAC_GetValue:
 1139              	.LVL86:
 1140              	.LFB146:
1061:Drivers/STM32G4xx_HAL_Driver/Src/stm32g4xx_hal_dac.c ****   uint32_t result;
ARM GAS  /tmp/cchITXCi.s 			page 52


 1141              		.loc 1 1061 1 is_stmt 1 view -0
 1142              		.cfi_startproc
 1143              		@ args = 0, pretend = 0, frame = 0
 1144              		@ frame_needed = 0, uses_anonymous_args = 0
 1145              		@ link register save eliminated.
1062:Drivers/STM32G4xx_HAL_Driver/Src/stm32g4xx_hal_dac.c **** 
 1146              		.loc 1 1062 3 view .LVU301
1065:Drivers/STM32G4xx_HAL_Driver/Src/stm32g4xx_hal_dac.c **** 
 1147              		.loc 1 1065 3 view .LVU302
1067:Drivers/STM32G4xx_HAL_Driver/Src/stm32g4xx_hal_dac.c ****   {
 1148              		.loc 1 1067 3 view .LVU303
1067:Drivers/STM32G4xx_HAL_Driver/Src/stm32g4xx_hal_dac.c ****   {
 1149              		.loc 1 1067 6 is_stmt 0 view .LVU304
 1150 0000 11B9     		cbnz	r1, .L76
1069:Drivers/STM32G4xx_HAL_Driver/Src/stm32g4xx_hal_dac.c ****   }
 1151              		.loc 1 1069 5 is_stmt 1 view .LVU305
1069:Drivers/STM32G4xx_HAL_Driver/Src/stm32g4xx_hal_dac.c ****   }
 1152              		.loc 1 1069 18 is_stmt 0 view .LVU306
 1153 0002 0368     		ldr	r3, [r0]
1069:Drivers/STM32G4xx_HAL_Driver/Src/stm32g4xx_hal_dac.c ****   }
 1154              		.loc 1 1069 12 view .LVU307
 1155 0004 D86A     		ldr	r0, [r3, #44]
 1156              	.LVL87:
1069:Drivers/STM32G4xx_HAL_Driver/Src/stm32g4xx_hal_dac.c ****   }
 1157              		.loc 1 1069 12 view .LVU308
 1158 0006 7047     		bx	lr
 1159              	.LVL88:
 1160              	.L76:
1074:Drivers/STM32G4xx_HAL_Driver/Src/stm32g4xx_hal_dac.c ****   }
 1161              		.loc 1 1074 5 is_stmt 1 view .LVU309
1074:Drivers/STM32G4xx_HAL_Driver/Src/stm32g4xx_hal_dac.c ****   }
 1162              		.loc 1 1074 18 is_stmt 0 view .LVU310
 1163 0008 0368     		ldr	r3, [r0]
1074:Drivers/STM32G4xx_HAL_Driver/Src/stm32g4xx_hal_dac.c ****   }
 1164              		.loc 1 1074 12 view .LVU311
 1165 000a 186B     		ldr	r0, [r3, #48]
 1166              	.LVL89:
1078:Drivers/STM32G4xx_HAL_Driver/Src/stm32g4xx_hal_dac.c **** }
 1167              		.loc 1 1078 3 is_stmt 1 view .LVU312
1079:Drivers/STM32G4xx_HAL_Driver/Src/stm32g4xx_hal_dac.c **** 
 1168              		.loc 1 1079 1 is_stmt 0 view .LVU313
 1169 000c 7047     		bx	lr
 1170              		.cfi_endproc
 1171              	.LFE146:
 1173              		.section	.text.HAL_DAC_ConfigChannel,"ax",%progbits
 1174              		.align	1
 1175              		.global	HAL_DAC_ConfigChannel
 1176              		.syntax unified
 1177              		.thumb
 1178              		.thumb_func
 1179              		.fpu fpv4-sp-d16
 1181              	HAL_DAC_ConfigChannel:
 1182              	.LVL90:
 1183              	.LFB147:
1101:Drivers/STM32G4xx_HAL_Driver/Src/stm32g4xx_hal_dac.c ****   uint32_t tmpreg1;
 1184              		.loc 1 1101 1 is_stmt 1 view -0
 1185              		.cfi_startproc
ARM GAS  /tmp/cchITXCi.s 			page 53


 1186              		@ args = 0, pretend = 0, frame = 0
 1187              		@ frame_needed = 0, uses_anonymous_args = 0
1102:Drivers/STM32G4xx_HAL_Driver/Src/stm32g4xx_hal_dac.c ****   uint32_t tmpreg2;
 1188              		.loc 1 1102 3 view .LVU315
1103:Drivers/STM32G4xx_HAL_Driver/Src/stm32g4xx_hal_dac.c ****   uint32_t tickstart;
 1189              		.loc 1 1103 3 view .LVU316
1104:Drivers/STM32G4xx_HAL_Driver/Src/stm32g4xx_hal_dac.c ****   uint32_t hclkfreq;
 1190              		.loc 1 1104 3 view .LVU317
1105:Drivers/STM32G4xx_HAL_Driver/Src/stm32g4xx_hal_dac.c ****   uint32_t connectOnChip;
 1191              		.loc 1 1105 3 view .LVU318
1106:Drivers/STM32G4xx_HAL_Driver/Src/stm32g4xx_hal_dac.c **** 
 1192              		.loc 1 1106 3 view .LVU319
1109:Drivers/STM32G4xx_HAL_Driver/Src/stm32g4xx_hal_dac.c ****   assert_param(IS_DAC_TRIGGER(hdac->Instance, sConfig->DAC_Trigger));
 1193              		.loc 1 1109 3 view .LVU320
1110:Drivers/STM32G4xx_HAL_Driver/Src/stm32g4xx_hal_dac.c ****   assert_param(IS_DAC_TRIGGER(hdac->Instance, sConfig->DAC_Trigger2));
 1194              		.loc 1 1110 3 view .LVU321
1111:Drivers/STM32G4xx_HAL_Driver/Src/stm32g4xx_hal_dac.c ****   assert_param(IS_DAC_OUTPUT_BUFFER_STATE(sConfig->DAC_OutputBuffer));
 1195              		.loc 1 1111 3 view .LVU322
1112:Drivers/STM32G4xx_HAL_Driver/Src/stm32g4xx_hal_dac.c ****   assert_param(IS_DAC_CHIP_CONNECTION(sConfig->DAC_ConnectOnChipPeripheral));
 1196              		.loc 1 1112 3 view .LVU323
1113:Drivers/STM32G4xx_HAL_Driver/Src/stm32g4xx_hal_dac.c ****   assert_param(IS_DAC_TRIMMING(sConfig->DAC_UserTrimming));
 1197              		.loc 1 1113 3 view .LVU324
1114:Drivers/STM32G4xx_HAL_Driver/Src/stm32g4xx_hal_dac.c ****   if ((sConfig->DAC_UserTrimming) == DAC_TRIMMING_USER)
 1198              		.loc 1 1114 3 view .LVU325
1115:Drivers/STM32G4xx_HAL_Driver/Src/stm32g4xx_hal_dac.c ****   {
 1199              		.loc 1 1115 3 view .LVU326
1117:Drivers/STM32G4xx_HAL_Driver/Src/stm32g4xx_hal_dac.c ****   }
 1200              		.loc 1 1117 5 view .LVU327
1119:Drivers/STM32G4xx_HAL_Driver/Src/stm32g4xx_hal_dac.c ****   if ((sConfig->DAC_SampleAndHold) == DAC_SAMPLEANDHOLD_ENABLE)
 1201              		.loc 1 1119 3 view .LVU328
1120:Drivers/STM32G4xx_HAL_Driver/Src/stm32g4xx_hal_dac.c ****   {
 1202              		.loc 1 1120 3 view .LVU329
1122:Drivers/STM32G4xx_HAL_Driver/Src/stm32g4xx_hal_dac.c ****     assert_param(IS_DAC_HOLDTIME(sConfig->DAC_SampleAndHoldConfig.DAC_HoldTime));
 1203              		.loc 1 1122 5 view .LVU330
1123:Drivers/STM32G4xx_HAL_Driver/Src/stm32g4xx_hal_dac.c ****     assert_param(IS_DAC_REFRESHTIME(sConfig->DAC_SampleAndHoldConfig.DAC_RefreshTime));
 1204              		.loc 1 1123 5 view .LVU331
1124:Drivers/STM32G4xx_HAL_Driver/Src/stm32g4xx_hal_dac.c ****   }
 1205              		.loc 1 1124 5 view .LVU332
1126:Drivers/STM32G4xx_HAL_Driver/Src/stm32g4xx_hal_dac.c ****   assert_param(IS_FUNCTIONAL_STATE(sConfig->DAC_DMADoubleDataMode));
 1206              		.loc 1 1126 3 view .LVU333
1127:Drivers/STM32G4xx_HAL_Driver/Src/stm32g4xx_hal_dac.c ****   assert_param(IS_FUNCTIONAL_STATE(sConfig->DAC_SignedFormat));
 1207              		.loc 1 1127 3 view .LVU334
1128:Drivers/STM32G4xx_HAL_Driver/Src/stm32g4xx_hal_dac.c **** 
 1208              		.loc 1 1128 3 view .LVU335
1131:Drivers/STM32G4xx_HAL_Driver/Src/stm32g4xx_hal_dac.c **** 
 1209              		.loc 1 1131 3 view .LVU336
1131:Drivers/STM32G4xx_HAL_Driver/Src/stm32g4xx_hal_dac.c **** 
 1210              		.loc 1 1131 3 view .LVU337
 1211 0000 4379     		ldrb	r3, [r0, #5]	@ zero_extendqisi2
 1212 0002 012B     		cmp	r3, #1
 1213 0004 00F0F580 		beq	.L93
1101:Drivers/STM32G4xx_HAL_Driver/Src/stm32g4xx_hal_dac.c ****   uint32_t tmpreg1;
 1214              		.loc 1 1101 1 is_stmt 0 discriminator 2 view .LVU338
 1215 0008 2DE9F041 		push	{r4, r5, r6, r7, r8, lr}
 1216              	.LCFI18:
 1217              		.cfi_def_cfa_offset 24
 1218              		.cfi_offset 4, -24
ARM GAS  /tmp/cchITXCi.s 			page 54


 1219              		.cfi_offset 5, -20
 1220              		.cfi_offset 6, -16
 1221              		.cfi_offset 7, -12
 1222              		.cfi_offset 8, -8
 1223              		.cfi_offset 14, -4
 1224 000c 1546     		mov	r5, r2
 1225 000e 0E46     		mov	r6, r1
 1226 0010 0446     		mov	r4, r0
1131:Drivers/STM32G4xx_HAL_Driver/Src/stm32g4xx_hal_dac.c **** 
 1227              		.loc 1 1131 3 is_stmt 1 discriminator 2 view .LVU339
 1228 0012 0123     		movs	r3, #1
 1229 0014 4371     		strb	r3, [r0, #5]
1134:Drivers/STM32G4xx_HAL_Driver/Src/stm32g4xx_hal_dac.c **** 
 1230              		.loc 1 1134 3 discriminator 2 view .LVU340
1134:Drivers/STM32G4xx_HAL_Driver/Src/stm32g4xx_hal_dac.c **** 
 1231              		.loc 1 1134 15 is_stmt 0 discriminator 2 view .LVU341
 1232 0016 0223     		movs	r3, #2
 1233 0018 0371     		strb	r3, [r0, #4]
1137:Drivers/STM32G4xx_HAL_Driver/Src/stm32g4xx_hal_dac.c ****   {
 1234              		.loc 1 1137 3 is_stmt 1 discriminator 2 view .LVU342
1137:Drivers/STM32G4xx_HAL_Driver/Src/stm32g4xx_hal_dac.c ****   {
 1235              		.loc 1 1137 14 is_stmt 0 discriminator 2 view .LVU343
 1236 001a 8B68     		ldr	r3, [r1, #8]
1137:Drivers/STM32G4xx_HAL_Driver/Src/stm32g4xx_hal_dac.c ****   {
 1237              		.loc 1 1137 6 discriminator 2 view .LVU344
 1238 001c 042B     		cmp	r3, #4
 1239 001e 17D0     		beq	.L103
 1240              	.LVL91:
 1241              	.L80:
1193:Drivers/STM32G4xx_HAL_Driver/Src/stm32g4xx_hal_dac.c ****     /* USER TRIMMING */
 1242              		.loc 1 1193 3 is_stmt 1 view .LVU345
1193:Drivers/STM32G4xx_HAL_Driver/Src/stm32g4xx_hal_dac.c ****     /* USER TRIMMING */
 1243              		.loc 1 1193 14 is_stmt 0 view .LVU346
 1244 0020 F369     		ldr	r3, [r6, #28]
1193:Drivers/STM32G4xx_HAL_Driver/Src/stm32g4xx_hal_dac.c ****     /* USER TRIMMING */
 1245              		.loc 1 1193 6 view .LVU347
 1246 0022 012B     		cmp	r3, #1
 1247 0024 5FD0     		beq	.L104
 1248              	.L86:
1211:Drivers/STM32G4xx_HAL_Driver/Src/stm32g4xx_hal_dac.c ****   /* Clear DAC_MCR_MODEx bits */
 1249              		.loc 1 1211 3 is_stmt 1 view .LVU348
1211:Drivers/STM32G4xx_HAL_Driver/Src/stm32g4xx_hal_dac.c ****   /* Clear DAC_MCR_MODEx bits */
 1250              		.loc 1 1211 17 is_stmt 0 view .LVU349
 1251 0026 2368     		ldr	r3, [r4]
1211:Drivers/STM32G4xx_HAL_Driver/Src/stm32g4xx_hal_dac.c ****   /* Clear DAC_MCR_MODEx bits */
 1252              		.loc 1 1211 11 view .LVU350
 1253 0028 DF6B     		ldr	r7, [r3, #60]
 1254              	.LVL92:
1213:Drivers/STM32G4xx_HAL_Driver/Src/stm32g4xx_hal_dac.c ****   /* Configure for the selected DAC channel: mode, buffer output & on chip peripheral connect */
 1255              		.loc 1 1213 3 is_stmt 1 view .LVU351
1213:Drivers/STM32G4xx_HAL_Driver/Src/stm32g4xx_hal_dac.c ****   /* Configure for the selected DAC channel: mode, buffer output & on chip peripheral connect */
 1256              		.loc 1 1213 56 is_stmt 0 view .LVU352
 1257 002a 05F01005 		and	r5, r5, #16
 1258              	.LVL93:
1213:Drivers/STM32G4xx_HAL_Driver/Src/stm32g4xx_hal_dac.c ****   /* Configure for the selected DAC channel: mode, buffer output & on chip peripheral connect */
 1259              		.loc 1 1213 44 view .LVU353
 1260 002e 0723     		movs	r3, #7
ARM GAS  /tmp/cchITXCi.s 			page 55


 1261 0030 AB40     		lsls	r3, r3, r5
1213:Drivers/STM32G4xx_HAL_Driver/Src/stm32g4xx_hal_dac.c ****   /* Configure for the selected DAC channel: mode, buffer output & on chip peripheral connect */
 1262              		.loc 1 1213 11 view .LVU354
 1263 0032 27EA0307 		bic	r7, r7, r3
 1264              	.LVL94:
1215:Drivers/STM32G4xx_HAL_Driver/Src/stm32g4xx_hal_dac.c ****   {
 1265              		.loc 1 1215 3 is_stmt 1 view .LVU355
1215:Drivers/STM32G4xx_HAL_Driver/Src/stm32g4xx_hal_dac.c ****   {
 1266              		.loc 1 1215 14 is_stmt 0 view .LVU356
 1267 0036 B369     		ldr	r3, [r6, #24]
1215:Drivers/STM32G4xx_HAL_Driver/Src/stm32g4xx_hal_dac.c ****   {
 1268              		.loc 1 1215 6 view .LVU357
 1269 0038 012B     		cmp	r3, #1
 1270 003a 61D0     		beq	.L94
1219:Drivers/STM32G4xx_HAL_Driver/Src/stm32g4xx_hal_dac.c ****   {
 1271              		.loc 1 1219 8 is_stmt 1 view .LVU358
1219:Drivers/STM32G4xx_HAL_Driver/Src/stm32g4xx_hal_dac.c ****   {
 1272              		.loc 1 1219 11 is_stmt 0 view .LVU359
 1273 003c 022B     		cmp	r3, #2
 1274 003e 00F0BE80 		beq	.L95
1225:Drivers/STM32G4xx_HAL_Driver/Src/stm32g4xx_hal_dac.c ****     {
 1275              		.loc 1 1225 5 is_stmt 1 view .LVU360
1225:Drivers/STM32G4xx_HAL_Driver/Src/stm32g4xx_hal_dac.c ****     {
 1276              		.loc 1 1225 16 is_stmt 0 view .LVU361
 1277 0042 7369     		ldr	r3, [r6, #20]
1225:Drivers/STM32G4xx_HAL_Driver/Src/stm32g4xx_hal_dac.c ****     {
 1278              		.loc 1 1225 8 view .LVU362
 1279 0044 002B     		cmp	r3, #0
 1280 0046 40F0BD80 		bne	.L96
1227:Drivers/STM32G4xx_HAL_Driver/Src/stm32g4xx_hal_dac.c ****     }
 1281              		.loc 1 1227 21 view .LVU363
 1282 004a 4FF00108 		mov	r8, #1
 1283 004e 59E0     		b	.L87
 1284              	.LVL95:
 1285              	.L103:
1140:Drivers/STM32G4xx_HAL_Driver/Src/stm32g4xx_hal_dac.c **** 
 1286              		.loc 1 1140 5 is_stmt 1 view .LVU364
1140:Drivers/STM32G4xx_HAL_Driver/Src/stm32g4xx_hal_dac.c **** 
 1287              		.loc 1 1140 17 is_stmt 0 view .LVU365
 1288 0050 FFF7FEFF 		bl	HAL_GetTick
 1289              	.LVL96:
1140:Drivers/STM32G4xx_HAL_Driver/Src/stm32g4xx_hal_dac.c **** 
 1290              		.loc 1 1140 17 view .LVU366
 1291 0054 0746     		mov	r7, r0
 1292              	.LVL97:
1142:Drivers/STM32G4xx_HAL_Driver/Src/stm32g4xx_hal_dac.c ****     {
 1293              		.loc 1 1142 5 is_stmt 1 view .LVU367
1142:Drivers/STM32G4xx_HAL_Driver/Src/stm32g4xx_hal_dac.c ****     {
 1294              		.loc 1 1142 8 is_stmt 0 view .LVU368
 1295 0056 7DB1     		cbz	r5, .L81
 1296              	.LVL98:
 1297              	.L82:
1166:Drivers/STM32G4xx_HAL_Driver/Src/stm32g4xx_hal_dac.c ****       {
 1298              		.loc 1 1166 20 view .LVU369
 1299 0058 2368     		ldr	r3, [r4]
1166:Drivers/STM32G4xx_HAL_Driver/Src/stm32g4xx_hal_dac.c ****       {
 1300              		.loc 1 1166 30 view .LVU370
ARM GAS  /tmp/cchITXCi.s 			page 56


 1301 005a 5B6B     		ldr	r3, [r3, #52]
1166:Drivers/STM32G4xx_HAL_Driver/Src/stm32g4xx_hal_dac.c ****       {
 1302              		.loc 1 1166 13 view .LVU371
 1303 005c 002B     		cmp	r3, #0
 1304 005e 3BDA     		bge	.L105
1169:Drivers/STM32G4xx_HAL_Driver/Src/stm32g4xx_hal_dac.c ****         {
 1305              		.loc 1 1169 9 is_stmt 1 view .LVU372
1169:Drivers/STM32G4xx_HAL_Driver/Src/stm32g4xx_hal_dac.c ****         {
 1306              		.loc 1 1169 14 is_stmt 0 view .LVU373
 1307 0060 FFF7FEFF 		bl	HAL_GetTick
 1308              	.LVL99:
1169:Drivers/STM32G4xx_HAL_Driver/Src/stm32g4xx_hal_dac.c ****         {
 1309              		.loc 1 1169 28 view .LVU374
 1310 0064 C01B     		subs	r0, r0, r7
1169:Drivers/STM32G4xx_HAL_Driver/Src/stm32g4xx_hal_dac.c ****         {
 1311              		.loc 1 1169 12 view .LVU375
 1312 0066 0128     		cmp	r0, #1
 1313 0068 F6D9     		bls	.L82
1172:Drivers/STM32G4xx_HAL_Driver/Src/stm32g4xx_hal_dac.c **** 
 1314              		.loc 1 1172 11 is_stmt 1 view .LVU376
 1315 006a 2369     		ldr	r3, [r4, #16]
 1316 006c 43F00803 		orr	r3, r3, #8
 1317 0070 2361     		str	r3, [r4, #16]
1175:Drivers/STM32G4xx_HAL_Driver/Src/stm32g4xx_hal_dac.c **** 
 1318              		.loc 1 1175 11 view .LVU377
1175:Drivers/STM32G4xx_HAL_Driver/Src/stm32g4xx_hal_dac.c **** 
 1319              		.loc 1 1175 23 is_stmt 0 view .LVU378
 1320 0072 0320     		movs	r0, #3
 1321 0074 2071     		strb	r0, [r4, #4]
1177:Drivers/STM32G4xx_HAL_Driver/Src/stm32g4xx_hal_dac.c ****         }
 1322              		.loc 1 1177 11 is_stmt 1 view .LVU379
1177:Drivers/STM32G4xx_HAL_Driver/Src/stm32g4xx_hal_dac.c ****         }
 1323              		.loc 1 1177 18 is_stmt 0 view .LVU380
 1324 0076 A0E0     		b	.L79
 1325              	.L81:
1145:Drivers/STM32G4xx_HAL_Driver/Src/stm32g4xx_hal_dac.c ****       {
 1326              		.loc 1 1145 20 view .LVU381
 1327 0078 2368     		ldr	r3, [r4]
1145:Drivers/STM32G4xx_HAL_Driver/Src/stm32g4xx_hal_dac.c ****       {
 1328              		.loc 1 1145 30 view .LVU382
 1329 007a 5B6B     		ldr	r3, [r3, #52]
1145:Drivers/STM32G4xx_HAL_Driver/Src/stm32g4xx_hal_dac.c ****       {
 1330              		.loc 1 1145 13 view .LVU383
 1331 007c 13F4004F 		tst	r3, #32768
 1332 0080 0BD0     		beq	.L106
1148:Drivers/STM32G4xx_HAL_Driver/Src/stm32g4xx_hal_dac.c ****         {
 1333              		.loc 1 1148 9 is_stmt 1 view .LVU384
1148:Drivers/STM32G4xx_HAL_Driver/Src/stm32g4xx_hal_dac.c ****         {
 1334              		.loc 1 1148 14 is_stmt 0 view .LVU385
 1335 0082 FFF7FEFF 		bl	HAL_GetTick
 1336              	.LVL100:
1148:Drivers/STM32G4xx_HAL_Driver/Src/stm32g4xx_hal_dac.c ****         {
 1337              		.loc 1 1148 28 view .LVU386
 1338 0086 C01B     		subs	r0, r0, r7
1148:Drivers/STM32G4xx_HAL_Driver/Src/stm32g4xx_hal_dac.c ****         {
 1339              		.loc 1 1148 12 view .LVU387
 1340 0088 0128     		cmp	r0, #1
ARM GAS  /tmp/cchITXCi.s 			page 57


 1341 008a F5D9     		bls	.L81
1151:Drivers/STM32G4xx_HAL_Driver/Src/stm32g4xx_hal_dac.c **** 
 1342              		.loc 1 1151 11 is_stmt 1 view .LVU388
 1343 008c 2369     		ldr	r3, [r4, #16]
 1344 008e 43F00803 		orr	r3, r3, #8
 1345 0092 2361     		str	r3, [r4, #16]
1154:Drivers/STM32G4xx_HAL_Driver/Src/stm32g4xx_hal_dac.c **** 
 1346              		.loc 1 1154 11 view .LVU389
1154:Drivers/STM32G4xx_HAL_Driver/Src/stm32g4xx_hal_dac.c **** 
 1347              		.loc 1 1154 23 is_stmt 0 view .LVU390
 1348 0094 0320     		movs	r0, #3
 1349 0096 2071     		strb	r0, [r4, #4]
1156:Drivers/STM32G4xx_HAL_Driver/Src/stm32g4xx_hal_dac.c ****         }
 1350              		.loc 1 1156 11 is_stmt 1 view .LVU391
1156:Drivers/STM32G4xx_HAL_Driver/Src/stm32g4xx_hal_dac.c ****         }
 1351              		.loc 1 1156 18 is_stmt 0 view .LVU392
 1352 0098 8FE0     		b	.L79
 1353              	.L106:
1159:Drivers/STM32G4xx_HAL_Driver/Src/stm32g4xx_hal_dac.c ****       hdac->Instance->SHSR1 = sConfig->DAC_SampleAndHoldConfig.DAC_SampleTime;
 1354              		.loc 1 1159 7 is_stmt 1 view .LVU393
 1355 009a 0120     		movs	r0, #1
 1356 009c FFF7FEFF 		bl	HAL_Delay
 1357              	.LVL101:
1160:Drivers/STM32G4xx_HAL_Driver/Src/stm32g4xx_hal_dac.c ****     }
 1358              		.loc 1 1160 7 view .LVU394
1160:Drivers/STM32G4xx_HAL_Driver/Src/stm32g4xx_hal_dac.c ****     }
 1359              		.loc 1 1160 11 is_stmt 0 view .LVU395
 1360 00a0 2368     		ldr	r3, [r4]
1160:Drivers/STM32G4xx_HAL_Driver/Src/stm32g4xx_hal_dac.c ****     }
 1361              		.loc 1 1160 63 view .LVU396
 1362 00a2 726A     		ldr	r2, [r6, #36]
1160:Drivers/STM32G4xx_HAL_Driver/Src/stm32g4xx_hal_dac.c ****     }
 1363              		.loc 1 1160 29 view .LVU397
 1364 00a4 1A64     		str	r2, [r3, #64]
 1365              	.L84:
1186:Drivers/STM32G4xx_HAL_Driver/Src/stm32g4xx_hal_dac.c ****                (sConfig->DAC_SampleAndHoldConfig.DAC_HoldTime) << (Channel & 0x10UL));
 1366              		.loc 1 1186 5 is_stmt 1 view .LVU398
 1367 00a6 2068     		ldr	r0, [r4]
 1368 00a8 826C     		ldr	r2, [r0, #72]
 1369 00aa 05F01001 		and	r1, r5, #16
 1370 00ae 40F2FF33 		movw	r3, #1023
 1371 00b2 8B40     		lsls	r3, r3, r1
 1372 00b4 22EA0302 		bic	r2, r2, r3
 1373 00b8 B36A     		ldr	r3, [r6, #40]
 1374 00ba 8B40     		lsls	r3, r3, r1
 1375 00bc 1A43     		orrs	r2, r2, r3
 1376 00be 8264     		str	r2, [r0, #72]
1189:Drivers/STM32G4xx_HAL_Driver/Src/stm32g4xx_hal_dac.c ****                (sConfig->DAC_SampleAndHoldConfig.DAC_RefreshTime) << (Channel & 0x10UL));
 1377              		.loc 1 1189 5 view .LVU399
 1378 00c0 2068     		ldr	r0, [r4]
 1379 00c2 C36C     		ldr	r3, [r0, #76]
 1380 00c4 FF22     		movs	r2, #255
 1381 00c6 8A40     		lsls	r2, r2, r1
 1382 00c8 23EA0203 		bic	r3, r3, r2
 1383 00cc F26A     		ldr	r2, [r6, #44]
 1384 00ce 02FA01F1 		lsl	r1, r2, r1
 1385 00d2 0B43     		orrs	r3, r3, r1
ARM GAS  /tmp/cchITXCi.s 			page 58


 1386 00d4 C364     		str	r3, [r0, #76]
 1387 00d6 A3E7     		b	.L80
 1388              	.L105:
1180:Drivers/STM32G4xx_HAL_Driver/Src/stm32g4xx_hal_dac.c ****       hdac->Instance->SHSR2 = sConfig->DAC_SampleAndHoldConfig.DAC_SampleTime;
 1389              		.loc 1 1180 7 view .LVU400
 1390 00d8 0120     		movs	r0, #1
 1391 00da FFF7FEFF 		bl	HAL_Delay
 1392              	.LVL102:
1181:Drivers/STM32G4xx_HAL_Driver/Src/stm32g4xx_hal_dac.c ****     }
 1393              		.loc 1 1181 7 view .LVU401
1181:Drivers/STM32G4xx_HAL_Driver/Src/stm32g4xx_hal_dac.c ****     }
 1394              		.loc 1 1181 11 is_stmt 0 view .LVU402
 1395 00de 2368     		ldr	r3, [r4]
1181:Drivers/STM32G4xx_HAL_Driver/Src/stm32g4xx_hal_dac.c ****     }
 1396              		.loc 1 1181 63 view .LVU403
 1397 00e0 726A     		ldr	r2, [r6, #36]
1181:Drivers/STM32G4xx_HAL_Driver/Src/stm32g4xx_hal_dac.c ****     }
 1398              		.loc 1 1181 29 view .LVU404
 1399 00e2 5A64     		str	r2, [r3, #68]
 1400 00e4 DFE7     		b	.L84
 1401              	.LVL103:
 1402              	.L104:
1197:Drivers/STM32G4xx_HAL_Driver/Src/stm32g4xx_hal_dac.c ****     /* Clear trimming value */
 1403              		.loc 1 1197 5 is_stmt 1 view .LVU405
1197:Drivers/STM32G4xx_HAL_Driver/Src/stm32g4xx_hal_dac.c ****     /* Clear trimming value */
 1404              		.loc 1 1197 19 is_stmt 0 view .LVU406
 1405 00e6 2168     		ldr	r1, [r4]
1197:Drivers/STM32G4xx_HAL_Driver/Src/stm32g4xx_hal_dac.c ****     /* Clear trimming value */
 1406              		.loc 1 1197 13 view .LVU407
 1407 00e8 8A6B     		ldr	r2, [r1, #56]
 1408              	.LVL104:
1199:Drivers/STM32G4xx_HAL_Driver/Src/stm32g4xx_hal_dac.c ****     /* Configure for the selected trimming offset */
 1409              		.loc 1 1199 5 is_stmt 1 view .LVU408
1199:Drivers/STM32G4xx_HAL_Driver/Src/stm32g4xx_hal_dac.c ****     /* Configure for the selected trimming offset */
 1410              		.loc 1 1199 59 is_stmt 0 view .LVU409
 1411 00ea 05F01000 		and	r0, r5, #16
1199:Drivers/STM32G4xx_HAL_Driver/Src/stm32g4xx_hal_dac.c ****     /* Configure for the selected trimming offset */
 1412              		.loc 1 1199 47 view .LVU410
 1413 00ee 1F23     		movs	r3, #31
 1414 00f0 8340     		lsls	r3, r3, r0
1199:Drivers/STM32G4xx_HAL_Driver/Src/stm32g4xx_hal_dac.c ****     /* Configure for the selected trimming offset */
 1415              		.loc 1 1199 13 view .LVU411
 1416 00f2 22EA0302 		bic	r2, r2, r3
 1417              	.LVL105:
1201:Drivers/STM32G4xx_HAL_Driver/Src/stm32g4xx_hal_dac.c ****     /* Calculate CCR register value depending on DAC_Channel */
 1418              		.loc 1 1201 5 is_stmt 1 view .LVU412
1201:Drivers/STM32G4xx_HAL_Driver/Src/stm32g4xx_hal_dac.c ****     /* Calculate CCR register value depending on DAC_Channel */
 1419              		.loc 1 1201 13 is_stmt 0 view .LVU413
 1420 00f6 336A     		ldr	r3, [r6, #32]
 1421              	.LVL106:
1203:Drivers/STM32G4xx_HAL_Driver/Src/stm32g4xx_hal_dac.c ****     /* Write to DAC CCR */
 1422              		.loc 1 1203 5 is_stmt 1 view .LVU414
1203:Drivers/STM32G4xx_HAL_Driver/Src/stm32g4xx_hal_dac.c ****     /* Write to DAC CCR */
 1423              		.loc 1 1203 24 is_stmt 0 view .LVU415
 1424 00f8 8340     		lsls	r3, r3, r0
 1425              	.LVL107:
1203:Drivers/STM32G4xx_HAL_Driver/Src/stm32g4xx_hal_dac.c ****     /* Write to DAC CCR */
ARM GAS  /tmp/cchITXCi.s 			page 59


 1426              		.loc 1 1203 13 view .LVU416
 1427 00fa 1343     		orrs	r3, r3, r2
 1428              	.LVL108:
1205:Drivers/STM32G4xx_HAL_Driver/Src/stm32g4xx_hal_dac.c ****   }
 1429              		.loc 1 1205 5 is_stmt 1 view .LVU417
1205:Drivers/STM32G4xx_HAL_Driver/Src/stm32g4xx_hal_dac.c ****   }
 1430              		.loc 1 1205 25 is_stmt 0 view .LVU418
 1431 00fc 8B63     		str	r3, [r1, #56]
 1432              	.LVL109:
1205:Drivers/STM32G4xx_HAL_Driver/Src/stm32g4xx_hal_dac.c ****   }
 1433              		.loc 1 1205 25 view .LVU419
 1434 00fe 92E7     		b	.L86
 1435              	.LVL110:
 1436              	.L94:
1217:Drivers/STM32G4xx_HAL_Driver/Src/stm32g4xx_hal_dac.c ****   }
 1437              		.loc 1 1217 19 view .LVU420
 1438 0100 4FF00008 		mov	r8, #0
 1439              	.L87:
 1440              	.LVL111:
1234:Drivers/STM32G4xx_HAL_Driver/Src/stm32g4xx_hal_dac.c ****   /* Clear DAC_MCR_DMADOUBLEx */
 1441              		.loc 1 1234 3 is_stmt 1 view .LVU421
1234:Drivers/STM32G4xx_HAL_Driver/Src/stm32g4xx_hal_dac.c ****   /* Clear DAC_MCR_DMADOUBLEx */
 1442              		.loc 1 1234 21 is_stmt 0 view .LVU422
 1443 0104 B368     		ldr	r3, [r6, #8]
1234:Drivers/STM32G4xx_HAL_Driver/Src/stm32g4xx_hal_dac.c ****   /* Clear DAC_MCR_DMADOUBLEx */
 1444              		.loc 1 1234 50 view .LVU423
 1445 0106 7269     		ldr	r2, [r6, #20]
1234:Drivers/STM32G4xx_HAL_Driver/Src/stm32g4xx_hal_dac.c ****   /* Clear DAC_MCR_DMADOUBLEx */
 1446              		.loc 1 1234 41 view .LVU424
 1447 0108 1343     		orrs	r3, r3, r2
1234:Drivers/STM32G4xx_HAL_Driver/Src/stm32g4xx_hal_dac.c ****   /* Clear DAC_MCR_DMADOUBLEx */
 1448              		.loc 1 1234 11 view .LVU425
 1449 010a 43EA0803 		orr	r3, r3, r8
 1450              	.LVL112:
1236:Drivers/STM32G4xx_HAL_Driver/Src/stm32g4xx_hal_dac.c ****   /* Configure for the selected DAC channel: DMA double data mode */
 1451              		.loc 1 1236 3 is_stmt 1 view .LVU426
1236:Drivers/STM32G4xx_HAL_Driver/Src/stm32g4xx_hal_dac.c ****   /* Configure for the selected DAC channel: DMA double data mode */
 1452              		.loc 1 1236 49 is_stmt 0 view .LVU427
 1453 010e 4FF48072 		mov	r2, #256
 1454 0112 AA40     		lsls	r2, r2, r5
1236:Drivers/STM32G4xx_HAL_Driver/Src/stm32g4xx_hal_dac.c ****   /* Configure for the selected DAC channel: DMA double data mode */
 1455              		.loc 1 1236 11 view .LVU428
 1456 0114 27EA0207 		bic	r7, r7, r2
 1457              	.LVL113:
1238:Drivers/STM32G4xx_HAL_Driver/Src/stm32g4xx_hal_dac.c ****   /* Clear DAC_MCR_SINFORMATx */
 1458              		.loc 1 1238 3 is_stmt 1 view .LVU429
1238:Drivers/STM32G4xx_HAL_Driver/Src/stm32g4xx_hal_dac.c ****   /* Clear DAC_MCR_SINFORMATx */
 1459              		.loc 1 1238 22 is_stmt 0 view .LVU430
 1460 0118 3279     		ldrb	r2, [r6, #4]	@ zero_extendqisi2
1238:Drivers/STM32G4xx_HAL_Driver/Src/stm32g4xx_hal_dac.c ****   /* Clear DAC_MCR_SINFORMATx */
 1461              		.loc 1 1238 78 view .LVU431
 1462 011a 012A     		cmp	r2, #1
 1463 011c 55D0     		beq	.L107
 1464 011e 4FF00008 		mov	r8, #0
 1465              	.LVL114:
 1466              	.L88:
1238:Drivers/STM32G4xx_HAL_Driver/Src/stm32g4xx_hal_dac.c ****   /* Clear DAC_MCR_SINFORMATx */
ARM GAS  /tmp/cchITXCi.s 			page 60


 1467              		.loc 1 1238 11 discriminator 4 view .LVU432
 1468 0122 48EA0303 		orr	r3, r8, r3
 1469              	.LVL115:
1240:Drivers/STM32G4xx_HAL_Driver/Src/stm32g4xx_hal_dac.c ****   /* Configure for the selected DAC channel: Signed format */
 1470              		.loc 1 1240 3 is_stmt 1 discriminator 4 view .LVU433
1240:Drivers/STM32G4xx_HAL_Driver/Src/stm32g4xx_hal_dac.c ****   /* Configure for the selected DAC channel: Signed format */
 1471              		.loc 1 1240 49 is_stmt 0 discriminator 4 view .LVU434
 1472 0126 4FF40072 		mov	r2, #512
 1473 012a AA40     		lsls	r2, r2, r5
1240:Drivers/STM32G4xx_HAL_Driver/Src/stm32g4xx_hal_dac.c ****   /* Configure for the selected DAC channel: Signed format */
 1474              		.loc 1 1240 11 discriminator 4 view .LVU435
 1475 012c 27EA0207 		bic	r7, r7, r2
 1476              	.LVL116:
1242:Drivers/STM32G4xx_HAL_Driver/Src/stm32g4xx_hal_dac.c ****   /* Clear DAC_MCR_HFSEL bits */
 1477              		.loc 1 1242 3 is_stmt 1 discriminator 4 view .LVU436
1242:Drivers/STM32G4xx_HAL_Driver/Src/stm32g4xx_hal_dac.c ****   /* Clear DAC_MCR_HFSEL bits */
 1478              		.loc 1 1242 22 is_stmt 0 discriminator 4 view .LVU437
 1479 0130 7279     		ldrb	r2, [r6, #5]	@ zero_extendqisi2
1242:Drivers/STM32G4xx_HAL_Driver/Src/stm32g4xx_hal_dac.c ****   /* Clear DAC_MCR_HFSEL bits */
 1480              		.loc 1 1242 73 discriminator 4 view .LVU438
 1481 0132 012A     		cmp	r2, #1
 1482 0134 4CD0     		beq	.L108
1242:Drivers/STM32G4xx_HAL_Driver/Src/stm32g4xx_hal_dac.c ****   /* Clear DAC_MCR_HFSEL bits */
 1483              		.loc 1 1242 73 view .LVU439
 1484 0136 4FF00008 		mov	r8, #0
 1485              	.L89:
1242:Drivers/STM32G4xx_HAL_Driver/Src/stm32g4xx_hal_dac.c ****   /* Clear DAC_MCR_HFSEL bits */
 1486              		.loc 1 1242 11 discriminator 4 view .LVU440
 1487 013a 48EA0308 		orr	r8, r8, r3
 1488              	.LVL117:
1244:Drivers/STM32G4xx_HAL_Driver/Src/stm32g4xx_hal_dac.c ****   /* Configure for both DAC channels: high frequency mode */
 1489              		.loc 1 1244 3 is_stmt 1 discriminator 4 view .LVU441
