ARM GAS  /tmp/ccpJPDc6.s 			page 1


   1              		.cpu cortex-m4
   2              		.eabi_attribute 27, 1
   3              		.eabi_attribute 28, 1
   4              		.eabi_attribute 20, 1
   5              		.eabi_attribute 21, 1
   6              		.eabi_attribute 23, 3
   7              		.eabi_attribute 24, 1
   8              		.eabi_attribute 25, 1
   9              		.eabi_attribute 26, 1
  10              		.eabi_attribute 30, 1
  11              		.eabi_attribute 34, 1
  12              		.eabi_attribute 18, 4
  13              		.file	"wave_emulator.c"
  14              		.text
  15              	.Ltext0:
  16              		.cfi_sections	.debug_frame
  17              		.section	.text.enable_emulator,"ax",%progbits
  18              		.align	1
  19              		.global	enable_emulator
  20              		.arch armv7e-m
  21              		.syntax unified
  22              		.thumb
  23              		.thumb_func
  24              		.fpu fpv4-sp-d16
  26              	enable_emulator:
  27              	.LFB133:
  28              		.file 1 "Core/Src/wave_emulator.c"
   1:Core/Src/wave_emulator.c **** /*
   2:Core/Src/wave_emulator.c ****  * wave_emulator.c
   3:Core/Src/wave_emulator.c ****  *
   4:Core/Src/wave_emulator.c ****  *  Created on: Nov 24, 2023
   5:Core/Src/wave_emulator.c ****  *      Author: citcea
   6:Core/Src/wave_emulator.c ****  */
   7:Core/Src/wave_emulator.c **** 
   8:Core/Src/wave_emulator.c **** #include "main.h"
   9:Core/Src/wave_emulator.c **** #include "dac.h"
  10:Core/Src/wave_emulator.c **** #include "dma.h"
  11:Core/Src/wave_emulator.c **** #include "tim.h"
  12:Core/Src/wave_emulator.c **** 
  13:Core/Src/wave_emulator.c **** #include "wave_emulator.h"
  14:Core/Src/wave_emulator.c **** 
  15:Core/Src/wave_emulator.c **** //#define REAL_PHASES_A_B_calculated_C		/*!< our DACs are syntethizing real current signals A and B
  16:Core/Src/wave_emulator.c **** #define REAL_PHASES_A_C_calculated_B		/*!< our DACs are syntethizing real current signals A and C  
  17:Core/Src/wave_emulator.c **** //#define REAL_PHASES_B_C_calculated_A		/*!< our DACs are syntethizing real current signals B and C
  18:Core/Src/wave_emulator.c **** 
  19:Core/Src/wave_emulator.c **** 
  20:Core/Src/wave_emulator.c **** 
  21:Core/Src/wave_emulator.c **** uint32_t emulator_enabled=0;			/*!< this variable is public, acts as a semaphore for the emulator  
  22:Core/Src/wave_emulator.c **** uint32_t old_emulator_enabled=0;		/*!< auxiliar local variable to store emulator_enabled values to 
  23:Core/Src/wave_emulator.c **** 
  24:Core/Src/wave_emulator.c **** //all functions contained in this .c
  25:Core/Src/wave_emulator.c **** void enable_emulator();
  26:Core/Src/wave_emulator.c **** void disable_emulator();
  27:Core/Src/wave_emulator.c **** 
  28:Core/Src/wave_emulator.c **** /**
  29:Core/Src/wave_emulator.c **** * \brief to be placed in main() superloop, constanly on the lookout for changes in emulator_enabled
  30:Core/Src/wave_emulator.c **** * manages the enable/disable function logic.
ARM GAS  /tmp/ccpJPDc6.s 			page 2


  31:Core/Src/wave_emulator.c **** */
  32:Core/Src/wave_emulator.c **** void emulation(){
  33:Core/Src/wave_emulator.c **** 	if(emulator_enabled!=old_emulator_enabled){	//there is a change in emulator_enabled
  34:Core/Src/wave_emulator.c **** 		if(emulator_enabled==0){
  35:Core/Src/wave_emulator.c **** 			disable_emulator();
  36:Core/Src/wave_emulator.c **** 		}else{
  37:Core/Src/wave_emulator.c **** 			enable_emulator();
  38:Core/Src/wave_emulator.c **** 		}
  39:Core/Src/wave_emulator.c **** 		old_emulator_enabled=emulator_enabled;	//update old_emulator_enabled
  40:Core/Src/wave_emulator.c **** 	}
  41:Core/Src/wave_emulator.c **** }
  42:Core/Src/wave_emulator.c **** 
  43:Core/Src/wave_emulator.c **** /**
  44:Core/Src/wave_emulator.c **** * \brief disables tim8 , configures DAC+DMA in circular mode, reenables tim8
  45:Core/Src/wave_emulator.c **** */
  46:Core/Src/wave_emulator.c **** void enable_emulator(){
  29              		.loc 1 46 23 view -0
  30              		.cfi_startproc
  31              		@ args = 0, pretend = 0, frame = 0
  32              		@ frame_needed = 0, uses_anonymous_args = 0
  33 0000 70B5     		push	{r4, r5, r6, lr}
  34              	.LCFI0:
  35              		.cfi_def_cfa_offset 16
  36              		.cfi_offset 4, -16
  37              		.cfi_offset 5, -12
  38              		.cfi_offset 6, -8
  39              		.cfi_offset 14, -4
  40 0002 82B0     		sub	sp, sp, #8
  41              	.LCFI1:
  42              		.cfi_def_cfa_offset 24
  47:Core/Src/wave_emulator.c **** 	    dma_index=0;
  43              		.loc 1 47 6 view .LVU1
  44              		.loc 1 47 15 is_stmt 0 view .LVU2
  45 0004 0024     		movs	r4, #0
  46 0006 0D4B     		ldr	r3, .L3
  47 0008 1C60     		str	r4, [r3]
  48:Core/Src/wave_emulator.c **** 		HAL_TIM_Base_Stop_IT(&htim8);
  48              		.loc 1 48 3 is_stmt 1 view .LVU3
  49 000a 0D4D     		ldr	r5, .L3+4
  50 000c 2846     		mov	r0, r5
  51 000e FFF7FEFF 		bl	HAL_TIM_Base_Stop_IT
  52              	.LVL0:
  49:Core/Src/wave_emulator.c **** #ifdef REAL_PHASES_A_B_calculated_C
  50:Core/Src/wave_emulator.c **** 		HAL_DAC_Start_DMA(&hdac1, DAC_CHANNEL_1, (uint32_t *)&current_A, sizeof(current_A)/sizeof(current
  51:Core/Src/wave_emulator.c **** 		HAL_DAC_Start_DMA(&hdac1, DAC_CHANNEL_2, (uint32_t *)&current_B, sizeof(current_B)/sizeof(current
  52:Core/Src/wave_emulator.c **** #endif
  53:Core/Src/wave_emulator.c **** 
  54:Core/Src/wave_emulator.c **** #ifdef REAL_PHASES_A_C_calculated_B
  55:Core/Src/wave_emulator.c **** 		HAL_DAC_Start_DMA(&hdac1, DAC_CHANNEL_1, (uint32_t *)&current_A, sizeof(current_A)/sizeof(current
  53              		.loc 1 55 3 view .LVU4
  54 0012 0C4E     		ldr	r6, .L3+8
  55 0014 0094     		str	r4, [sp]
  56 0016 8423     		movs	r3, #132
  57 0018 0B4A     		ldr	r2, .L3+12
  58 001a 2146     		mov	r1, r4
  59 001c 3046     		mov	r0, r6
  60 001e FFF7FEFF 		bl	HAL_DAC_Start_DMA
ARM GAS  /tmp/ccpJPDc6.s 			page 3


  61              	.LVL1:
  56:Core/Src/wave_emulator.c **** 		HAL_DAC_Start_DMA(&hdac1, DAC_CHANNEL_2, (uint32_t *)&current_C, sizeof(current_C)/sizeof(current
  62              		.loc 1 56 3 view .LVU5
  63 0022 0094     		str	r4, [sp]
  64 0024 8423     		movs	r3, #132
  65 0026 094A     		ldr	r2, .L3+16
  66 0028 1021     		movs	r1, #16
  67 002a 3046     		mov	r0, r6
  68 002c FFF7FEFF 		bl	HAL_DAC_Start_DMA
  69              	.LVL2:
  57:Core/Src/wave_emulator.c **** #endif
  58:Core/Src/wave_emulator.c **** 
  59:Core/Src/wave_emulator.c **** #ifdef REAL_PHASES_B_C_calculated_A
  60:Core/Src/wave_emulator.c **** 		HAL_DAC_Start_DMA(&hdac1, DAC_CHANNEL_1, (uint32_t *)&current_B, sizeof(current_B)/sizeof(current
  61:Core/Src/wave_emulator.c **** 		HAL_DAC_Start_DMA(&hdac1, DAC_CHANNEL_2, (uint32_t *)&current_C, sizeof(current_C)/sizeof(current
  62:Core/Src/wave_emulator.c **** #endif
  63:Core/Src/wave_emulator.c **** 		HAL_TIM_Base_Start_IT(&htim8); //start 20Khz timer with enabled interruption (DAC+DMA trigger)
  70              		.loc 1 63 3 view .LVU6
  71 0030 2846     		mov	r0, r5
  72 0032 FFF7FEFF 		bl	HAL_TIM_Base_Start_IT
  73              	.LVL3:
  64:Core/Src/wave_emulator.c **** 
  65:Core/Src/wave_emulator.c **** }
  74              		.loc 1 65 1 is_stmt 0 view .LVU7
  75 0036 02B0     		add	sp, sp, #8
  76              	.LCFI2:
  77              		.cfi_def_cfa_offset 16
  78              		@ sp needed
  79 0038 70BD     		pop	{r4, r5, r6, pc}
  80              	.L4:
  81 003a 00BF     		.align	2
  82              	.L3:
  83 003c 00000000 		.word	dma_index
  84 0040 00000000 		.word	htim8
  85 0044 00000000 		.word	hdac1
  86 0048 00000000 		.word	current_A
  87 004c 00000000 		.word	current_C
  88              		.cfi_endproc
  89              	.LFE133:
  91              		.section	.text.disable_emulator,"ax",%progbits
  92              		.align	1
  93              		.global	disable_emulator
  94              		.syntax unified
  95              		.thumb
  96              		.thumb_func
  97              		.fpu fpv4-sp-d16
  99              	disable_emulator:
 100              	.LFB134:
  66:Core/Src/wave_emulator.c **** 
  67:Core/Src/wave_emulator.c **** /**
  68:Core/Src/wave_emulator.c **** * \brief stops DAC+DMA in circular mode
  69:Core/Src/wave_emulator.c **** */
  70:Core/Src/wave_emulator.c **** void disable_emulator(){
 101              		.loc 1 70 24 is_stmt 1 view -0
 102              		.cfi_startproc
 103              		@ args = 0, pretend = 0, frame = 0
 104              		@ frame_needed = 0, uses_anonymous_args = 0
ARM GAS  /tmp/ccpJPDc6.s 			page 4


 105 0000 38B5     		push	{r3, r4, r5, lr}
 106              	.LCFI3:
 107              		.cfi_def_cfa_offset 16
 108              		.cfi_offset 3, -16
 109              		.cfi_offset 4, -12
 110              		.cfi_offset 5, -8
 111              		.cfi_offset 14, -4
  71:Core/Src/wave_emulator.c **** 	    HAL_TIM_Base_Stop_IT(&htim8);
 112              		.loc 1 71 6 view .LVU9
 113 0002 084C     		ldr	r4, .L7
 114 0004 2046     		mov	r0, r4
 115 0006 FFF7FEFF 		bl	HAL_TIM_Base_Stop_IT
 116              	.LVL4:
  72:Core/Src/wave_emulator.c **** 		HAL_DAC_Stop_DMA(&hdac1, DAC_CHANNEL_1);
 117              		.loc 1 72 3 view .LVU10
 118 000a 074D     		ldr	r5, .L7+4
 119 000c 0021     		movs	r1, #0
 120 000e 2846     		mov	r0, r5
 121 0010 FFF7FEFF 		bl	HAL_DAC_Stop_DMA
 122              	.LVL5:
  73:Core/Src/wave_emulator.c **** 		HAL_DAC_Stop_DMA(&hdac1, DAC_CHANNEL_2);
 123              		.loc 1 73 3 view .LVU11
 124 0014 1021     		movs	r1, #16
 125 0016 2846     		mov	r0, r5
 126 0018 FFF7FEFF 		bl	HAL_DAC_Stop_DMA
 127              	.LVL6:
  74:Core/Src/wave_emulator.c **** 		HAL_TIM_Base_Start_IT(&htim8); //start 20Khz timer with enabled interruption (DAC+DMA trigger)
 128              		.loc 1 74 3 view .LVU12
 129 001c 2046     		mov	r0, r4
 130 001e FFF7FEFF 		bl	HAL_TIM_Base_Start_IT
 131              	.LVL7:
  75:Core/Src/wave_emulator.c **** }
 132              		.loc 1 75 1 is_stmt 0 view .LVU13
 133 0022 38BD     		pop	{r3, r4, r5, pc}
 134              	.L8:
 135              		.align	2
 136              	.L7:
 137 0024 00000000 		.word	htim8
 138 0028 00000000 		.word	hdac1
 139              		.cfi_endproc
 140              	.LFE134:
 142              		.section	.text.emulation,"ax",%progbits
 143              		.align	1
 144              		.global	emulation
 145              		.syntax unified
 146              		.thumb
 147              		.thumb_func
 148              		.fpu fpv4-sp-d16
 150              	emulation:
 151              	.LFB132:
  32:Core/Src/wave_emulator.c **** 	if(emulator_enabled!=old_emulator_enabled){	//there is a change in emulator_enabled
 152              		.loc 1 32 17 is_stmt 1 view -0
 153              		.cfi_startproc
 154              		@ args = 0, pretend = 0, frame = 0
 155              		@ frame_needed = 0, uses_anonymous_args = 0
 156 0000 08B5     		push	{r3, lr}
 157              	.LCFI4:
ARM GAS  /tmp/ccpJPDc6.s 			page 5


 158              		.cfi_def_cfa_offset 8
 159              		.cfi_offset 3, -8
 160              		.cfi_offset 14, -4
  33:Core/Src/wave_emulator.c **** 		if(emulator_enabled==0){
 161              		.loc 1 33 2 view .LVU15
  33:Core/Src/wave_emulator.c **** 		if(emulator_enabled==0){
 162              		.loc 1 33 21 is_stmt 0 view .LVU16
 163 0002 084B     		ldr	r3, .L14
 164 0004 1B68     		ldr	r3, [r3]
 165 0006 084A     		ldr	r2, .L14+4
 166 0008 1268     		ldr	r2, [r2]
  33:Core/Src/wave_emulator.c **** 		if(emulator_enabled==0){
 167              		.loc 1 33 4 view .LVU17
 168 000a 9342     		cmp	r3, r2
 169 000c 06D0     		beq	.L9
  34:Core/Src/wave_emulator.c **** 			disable_emulator();
 170              		.loc 1 34 3 is_stmt 1 view .LVU18
  34:Core/Src/wave_emulator.c **** 			disable_emulator();
 171              		.loc 1 34 5 is_stmt 0 view .LVU19
 172 000e 33B9     		cbnz	r3, .L11
  35:Core/Src/wave_emulator.c **** 		}else{
 173              		.loc 1 35 4 is_stmt 1 view .LVU20
 174 0010 FFF7FEFF 		bl	disable_emulator
 175              	.LVL8:
 176              	.L12:
  39:Core/Src/wave_emulator.c **** 	}
 177              		.loc 1 39 3 view .LVU21
  39:Core/Src/wave_emulator.c **** 	}
 178              		.loc 1 39 23 is_stmt 0 view .LVU22
 179 0014 034B     		ldr	r3, .L14
 180 0016 1A68     		ldr	r2, [r3]
 181 0018 034B     		ldr	r3, .L14+4
 182 001a 1A60     		str	r2, [r3]
 183              	.L9:
  41:Core/Src/wave_emulator.c **** 
 184              		.loc 1 41 1 view .LVU23
 185 001c 08BD     		pop	{r3, pc}
 186              	.L11:
  37:Core/Src/wave_emulator.c **** 		}
 187              		.loc 1 37 4 is_stmt 1 view .LVU24
 188 001e FFF7FEFF 		bl	enable_emulator
 189              	.LVL9:
 190 0022 F7E7     		b	.L12
 191              	.L15:
 192              		.align	2
 193              	.L14:
 194 0024 00000000 		.word	.LANCHOR0
 195 0028 00000000 		.word	.LANCHOR1
 196              		.cfi_endproc
 197              	.LFE132:
 199              		.global	old_emulator_enabled
 200              		.global	emulator_enabled
 201              		.section	.bss.emulator_enabled,"aw",%nobits
 202              		.align	2
 203              		.set	.LANCHOR0,. + 0
 206              	emulator_enabled:
 207 0000 00000000 		.space	4
ARM GAS  /tmp/ccpJPDc6.s 			page 6


 208              		.section	.bss.old_emulator_enabled,"aw",%nobits
 209              		.align	2
 210              		.set	.LANCHOR1,. + 0
 213              	old_emulator_enabled:
 214 0000 00000000 		.space	4
 215              		.text
 216              	.Letext0:
 217              		.file 2 "/usr/lib/gcc/arm-none-eabi/8.3.1/include/stdint.h"
 218              		.file 3 "Drivers/CMSIS/Include/core_cm4.h"
 219              		.file 4 "Drivers/CMSIS/Device/ST/STM32G4xx/Include/system_stm32g4xx.h"
 220              		.file 5 "Drivers/CMSIS/Device/ST/STM32G4xx/Include/stm32g431xx.h"
 221              		.file 6 "Drivers/STM32G4xx_HAL_Driver/Inc/stm32g4xx_hal_def.h"
 222              		.file 7 "Drivers/STM32G4xx_HAL_Driver/Inc/stm32g4xx_hal_gpio.h"
 223              		.file 8 "Drivers/STM32G4xx_HAL_Driver/Inc/stm32g4xx_hal_dma.h"
 224              		.file 9 "Drivers/STM32G4xx_HAL_Driver/Inc/stm32g4xx_hal_dac.h"
 225              		.file 10 "Drivers/STM32G4xx_HAL_Driver/Inc/stm32g4xx_hal_flash.h"
 226              		.file 11 "Drivers/STM32G4xx_HAL_Driver/Inc/stm32g4xx_hal_tim.h"
 227              		.file 12 "Drivers/STM32G4xx_HAL_Driver/Inc/stm32g4xx_hal_uart.h"
 228              		.file 13 "Drivers/STM32G4xx_HAL_Driver/Inc/stm32g4xx_hal.h"
 229              		.file 14 "Core/Inc/dac.h"
 230              		.file 15 "Core/Inc/tim.h"
 231              		.file 16 "Core/Inc/real_waveforms.h"
 232              		.file 17 "Core/Inc/wave_emulator.h"
ARM GAS  /tmp/ccpJPDc6.s 			page 7

